
CH32V003F4P6-libhydrogen-PoC.elf:     file format elf32-littleriscv
CH32V003F4P6-libhydrogen-PoC.elf
architecture: riscv:rv32, flags 0x00000112:
EXEC_P, HAS_SYMS, D_PAGED
start address 0x00000000

Program Header:
    LOAD off    0x00001000 vaddr 0x00000000 paddr 0x00000000 align 2**12
         filesz 0x00003230 memsz 0x00003230 flags r-x
    LOAD off    0x00005000 vaddr 0x20000000 paddr 0x00003230 align 2**12
         filesz 0x000000a8 memsz 0x000000a8 flags rw-
    LOAD off    0x000050b0 vaddr 0x200000b0 paddr 0x000032d8 align 2**12
         filesz 0x00000000 memsz 0x00000084 flags rw-
    LOAD off    0x00005700 vaddr 0x20000700 paddr 0x20000700 align 2**12
         filesz 0x00000000 memsz 0x00000100 flags rw-

Sections:
Idx Name          Size      VMA       LMA       File off  Algn
  0 .init         000000a0  00000000  00000000  00001000  2**2
                  CONTENTS, ALLOC, LOAD, READONLY, CODE
  1 .text         00003190  000000a0  000000a0  000010a0  2**2
                  CONTENTS, ALLOC, LOAD, READONLY, CODE
  2 .fini         00000000  00003230  00003230  000050a8  2**0
                  CONTENTS, ALLOC, LOAD, CODE
  3 .dalign       00000000  20000000  20000000  000050a8  2**0
                  CONTENTS
  4 .dlalign      00000000  00003230  00003230  000050a8  2**0
                  CONTENTS
  5 .data         000000a8  20000000  00003230  00005000  2**2
                  CONTENTS, ALLOC, LOAD, DATA
  6 .bss          00000084  200000b0  000032d8  000050b0  2**4
                  ALLOC
  7 .stack        00000100  20000700  20000700  00005700  2**0
                  ALLOC
  8 .debug_info   000120c4  00000000  00000000  000050a8  2**0
                  CONTENTS, READONLY, DEBUGGING
  9 .debug_abbrev 00002563  00000000  00000000  0001716c  2**0
                  CONTENTS, READONLY, DEBUGGING
 10 .debug_loc    00008d2e  00000000  00000000  000196cf  2**0
                  CONTENTS, READONLY, DEBUGGING
 11 .debug_aranges 00000888  00000000  00000000  00022400  2**3
                  CONTENTS, READONLY, DEBUGGING
 12 .debug_ranges 00000c58  00000000  00000000  00022c88  2**3
                  CONTENTS, READONLY, DEBUGGING
 13 .debug_line   0000c3ea  00000000  00000000  000238e0  2**0
                  CONTENTS, READONLY, DEBUGGING
 14 .debug_str    00002c73  00000000  00000000  0002fcca  2**0
                  CONTENTS, READONLY, DEBUGGING
 15 .comment      00000033  00000000  00000000  0003293d  2**0
                  CONTENTS, READONLY
 16 .debug_frame  000021d4  00000000  00000000  00032970  2**2
                  CONTENTS, READONLY, DEBUGGING
 17 .stab         000000b4  00000000  00000000  00034b44  2**2
                  CONTENTS, READONLY, DEBUGGING
 18 .stabstr      00000183  00000000  00000000  00034bf8  2**0
                  CONTENTS, READONLY, DEBUGGING
SYMBOL TABLE:
00000000 l    d  .init	00000000 .init
000000a0 l    d  .text	00000000 .text
00003230 l    d  .fini	00000000 .fini
20000000 l    d  .dalign	00000000 .dalign
00003230 l    d  .dlalign	00000000 .dlalign
20000000 l    d  .data	00000000 .data
200000b0 l    d  .bss	00000000 .bss
20000700 l    d  .stack	00000000 .stack
00000000 l    d  .debug_info	00000000 .debug_info
00000000 l    d  .debug_abbrev	00000000 .debug_abbrev
00000000 l    d  .debug_loc	00000000 .debug_loc
00000000 l    d  .debug_aranges	00000000 .debug_aranges
00000000 l    d  .debug_ranges	00000000 .debug_ranges
00000000 l    d  .debug_line	00000000 .debug_line
00000000 l    d  .debug_str	00000000 .debug_str
00000000 l    d  .comment	00000000 .comment
00000000 l    d  .debug_frame	00000000 .debug_frame
00000000 l    d  .stab	00000000 .stab
00000000 l    d  .stabstr	00000000 .stabstr
00000000 l    df *ABS*	00000000 hydrogen.c
000001f2 l     F .text	0000001c mem_cpy
0000020e l     F .text	00000014 mem_zero
00000222 l     F .text	000000ae gimli_core_u8
000002d0 l     F .text	00000032 hydro_x25519_propagate
00000302 l     F .text	0000003e hydro_x25519_add
00000340 l     F .text	0000004c hydro_x25519_sub
0000038c l     F .text	000000e0 hydro_x25519_mul
0000046c l     F .text	0000000c hydro_x25519_mul1
00000478 l     F .text	00000026 hydro_x25519_condswap
0000049e l     F .text	0000004c hydro_x25519_canon
000004ea l     F .text	00000182 hydro_x25519_sc_montmul
0000066c l     F .text	0000000e hydro_x25519_swapin
0000067a l     F .text	0000000e hydro_x25519_swapout
00000688 l     F .text	00000092 hydro_x25519_ladder_part1
0000071a l     F .text	000000f0 hydro_x25519_core
0000080a l     F .text	00000064 hydro_x25519_scalarmult
0000086e l     F .text	00000018 hydro_x25519_scalarmult_base_uniform
00000a66 l     F .text	0000007e hydro_random_ensure_initialized
00000b54 l     F .text	00000050 hydro_sign_challenge
200000c0 l     O .bss	00000040 hydro_random_context
00002e40 l     O .text	00000020 hydro_x25519_BASE_POINT
00002e60 l     O .text	00000004 hydro_x25519_a24
00002e64 l     O .text	00000020 hydro_x25519_sc_p
00002e84 l     O .text	00000020 hydro_x25519_sc_r2
00002ea4 l     O .text	00000040 zero
00000000 l    df *ABS*	00000000 ch32v00x_it.c
00000000 l    df *ABS*	00000000 main.c
00000000 l    df *ABS*	00000000 system_ch32v00x.c
00000000 l    df *ABS*	00000000 user_ADC.c
00000000 l    df *ABS*	00000000 ch32v00x_adc.c
00000000 l    df *ABS*	00000000 ch32v00x_gpio.c
00000000 l    df *ABS*	00000000 ch32v00x_misc.c
00000000 l    df *ABS*	00000000 ch32v00x_rcc.c
20000018 l     O .data	00000014 ADCPrescTable
2000002c l     O .data	00000010 APBAHBPrescTable
00000000 l    df *ABS*	00000000 ch32v00x_usart.c
00000000 l    df *ABS*	00000000 debug.c
2000012c l     O .bss	00000002 p_ms
2000012e l     O .bss	00000001 p_us
2000003c l     O .data	00000004 curbrk.4065
00000000 l    df *ABS*	00000000 core_riscv.c
00000000 l    df *ABS*	00000000 multi3.c
00000000 l    df *ABS*	00000000 abort.c
00000000 l    df *ABS*	00000000 memcpy.c
00000000 l    df *ABS*	00000000 printf.c
00000000 l    df *ABS*	00000000 signal.c
00000000 l    df *ABS*	00000000 signalr.c
00000000 l    df *ABS*	00000000 findfp.c
00001c98 l     F .text	0000006a std
00000000 l    df *ABS*	00000000 fwalk.c
00000000 l    df *ABS*	00000000 nano-mallocr.c
00000000 l    df *ABS*	00000000 nano-vfprintf.c
00001f9a l     F .text	0000002a __sfputc_r
00000000 l    df *ABS*	00000000 nano-vfprintf_i.c
00000000 l    df *ABS*	00000000 sbrkr.c
00000000 l    df *ABS*	00000000 stdio.c
00000000 l    df *ABS*	00000000 wbuf.c
00000000 l    df *ABS*	00000000 writer.c
00000000 l    df *ABS*	00000000 wsetup.c
00000000 l    df *ABS*	00000000 closer.c
00000000 l    df *ABS*	00000000 fflush.c
00000000 l    df *ABS*	00000000 lseekr.c
00000000 l    df *ABS*	00000000 makebuf.c
00000000 l    df *ABS*	00000000 memchr.c
00000000 l    df *ABS*	00000000 mlock.c
00000000 l    df *ABS*	00000000 nano-mallocr.c
00000000 l    df *ABS*	00000000 readr.c
00000000 l    df *ABS*	00000000 fstatr.c
00000000 l    df *ABS*	00000000 isattyr.c
00000000 l    df *ABS*	00000000 close.c
00000000 l    df *ABS*	00000000 fstat.c
00000000 l    df *ABS*	00000000 getpid.c
00000000 l    df *ABS*	00000000 isatty.c
00000000 l    df *ABS*	00000000 kill.c
00000000 l    df *ABS*	00000000 lseek.c
00000000 l    df *ABS*	00000000 read.c
00000000 l    df *ABS*	00000000 _exit.c
00000000 l    df *ABS*	00000000 impure.c
20000040 l     O .data	00000060 impure_data
00000000 l    df *ABS*	00000000 reent.c
00002db8 g     F .text	00000028 _isatty_r
00002df8 g     F .text	0000000c _getpid
00002b6e g     F .text	0000002c _lseek_r
20000124 g     O .bss	00000001 extract_count
20000108 g     O .bss	00000002 ADC_Channel_Vrefint_value
00001c68 g     F .text	0000002c _kill_r
00001bb6 g     F .text	00000042 printf
200008a0 g       .data	00000000 __global_pointer$
000013ec  w      .text	00000000 TIM1_CC_IRQHandler
00002762 g     F .text	00000036 __sseek
00001d54 g     F .text	0000006a __sinit
0000279e g     F .text	000000ca __swbuf_r
00000dc8 g     F .text	00000002 HardFault_Handler
00001d0c g     F .text	00000048 __sfmoreglue
00002cb4 g     F .text	00000002 __malloc_unlock
20000110 g     O .bss	00000008 entropy_buffer
00000dca g     F .text	00000020 SysTick_Handler
0000151a g     F .text	0000000a ADC_StartCalibration
000013c4  w      .text	00000000 PVD_IRQHandler
00000dc4 g     F .text	00000004 NMI_Handler
00000e3c g     F .text	000000ae SYSTEM_CFG
00000bce g     F .text	0000000c hydro_sign_init
00001920 g     F .text	0000000c USART_GetFlagStatus
00002d8e g     F .text	0000002a _fstat_r
20000130 g     O .bss	00000004 errno
200000b0 g       .bss	00000000 _sbss
00000100 g       *ABS*	00000000 __stack_size
00001996 g     F .text	00000058 USART_Printf_Init
000000aa g     F .text	0000000a .hidden __riscv_restore_2
00001ade g     F .text	000000d8 memcpy
000014e2 g     F .text	00000010 ADC_Cmd
00001d02 g     F .text	0000000a _cleanup_r
20000010 g     O .data	00000004 SystemCoreClock
000000d4 g     F .text	0000002c .hidden __udivsi3
00001bf8 g     F .text	00000062 _raise_r
00002dec g     F .text	0000000c _fstat
000000a0 g       .init	00000000 _einit
000017b8 g     F .text	0000001e RCC_APB2PeriphClockCmd
20000118 g     O .bss	00000001 entropy_buffer_count
00001c94 g     F .text	00000004 _getpid_r
000015fe g     F .text	000000d8 GPIO_Init
000016dc g     F .text	00000014 RCC_PLLConfig
000016f0 g     F .text	00000014 RCC_ADCCLKConfig
20000128 g     O .bss	00000004 NVIC_Priority_Group
000013e4  w      .text	00000000 SPI1_IRQHandler
00001508 g     F .text	0000000a ADC_ResetCalibration
000018fa g     F .text	0000001c USART_Cmd
000026ba g     F .text	0000002a _sbrk_r
00000b48 g     F .text	0000000c hydro_init
000000a0 g     F .text	0000000a .hidden __riscv_save_1
000000aa g     F .text	0000000a .hidden __riscv_restore_0
2000011c g     O .bss	00000004 extract
000013cc  w      .text	00000000 AWU_IRQHandler
000013ca  w      .text	00000000 EXTI7_0_IRQHandler
20000104 g     O .bss	00000002 ADC_Channel_3_value
00002d62 g     F .text	0000002c _read_r
20000120 g     O .bss	00000004 extract_RDY
000017d6 g     F .text	0000001e RCC_APB1PeriphClockCmd
20000100 g     O .bss	00000004 uptime_ms
20000700 g       .stack	00000000 _heap_end
20000106 g     O .bss	00000002 ADC_Channel_4_value
00002e04 g     F .text	0000000c _isatty
200000a4 g     O .data	00000004 _global_impure_ptr
0000113c g     F .text	00000016 RNG_GetCondensedEntropy
000013d4  w      .text	00000000 DMA1_Channel4_IRQHandler
00001544 g     F .text	000000ba ADC_RegularChannelConfig
00001ad0 g     F .text	0000000e abort
00001228 g     F .text	00000192 ADC1_IRQHandler
00001a3a g     F .text	00000026 _sbrk
00001524 g     F .text	00000008 ADC_GetCalibrationStatus
20000134 g       .bss	00000000 _ebss
000013da  w      .text	00000000 DMA1_Channel7_IRQHandler
0000152c g     F .text	00000018 ADC_SoftwareStartConvCmd
00001512 g     F .text	00000008 ADC_GetResetCalibrationStatus
0000192c g     F .text	00000034 Delay_Init
000008c2 g     F .text	0000006c hydro_hash_update
00000ae4 g     F .text	00000064 hydro_random_buf
00000100 g     F .text	00000008 .hidden __umodsi3
00003194 g     O .text	00000020 __sf_fake_stderr
000013de  w      .text	00000000 I2C1_EV_IRQHandler
00001718 g     F .text	000000a0 RCC_GetClocksFreq
000013d8  w      .text	00000000 DMA1_Channel6_IRQHandler
00001fc4 g     F .text	0000003e __sfputs_r
00000d82 g     F .text	00000042 hydro_sign_verify
00002c98 g     F .text	0000001a memchr
00001812 g     F .text	000000e8 USART_Init
00002cb6 g     F .text	000000ac _free_r
000013c8  w      .text	00000000 RCC_IRQHandler
000013ea  w      .text	00000000 TIM1_TRG_COM_IRQHandler
000013ce  w      .text	00000000 DMA1_Channel1_IRQHandler
00000000 g       .init	00000000 _start
20000000 g     O .data	00000010 AHBPrescTable
00001a60 g     F .text	00000006 __get_MISA
00002e1c g     F .text	0000000c _lseek
000000b4 g     F .text	00000014 .hidden __mulsi3
00001960 g     F .text	00000036 SysTimer
20000014 g     O .data	00000001 current_channel
00000d42 g     F .text	00000040 hydro_sign_create
000029aa g     F .text	00000028 _close_r
20000000 g       .dalign	00000000 _data_vma
00002896 g     F .text	00000114 __swsetup_r
00001dbe g     F .text	0000009e __sfp
000009bc g     F .text	000000aa hydro_hash_final
000026e4 g     F .text	00000030 __sread
00002cb2 g     F .text	00000002 __malloc_lock
00002b06 g     F .text	00000068 _fflush_r
000031b4 g     O .text	00000020 __sf_fake_stdin
0000014a g     F .text	000000a8 memset
00000eea g     F .text	00000154 main
00002798 g     F .text	00000006 __sclose
00001ebc g     F .text	000000de _malloc_r
000013d6  w      .text	00000000 DMA1_Channel5_IRQHandler
000000cc g     F .text	00000058 .hidden __divsi3
0000103e g     F .text	00000090 SystemInit
00001bb6 g     F .text	00000042 iprintf
00000ba4 g     F .text	0000002a hydro_sign_keygen
00000000 g       .init	00000000 _sinit
00002868 g     F .text	0000002e _write_r
000013d2  w      .text	00000000 DMA1_Channel3_IRQHandler
00000c84 g     F .text	000000be hydro_sign_final_verify
000014f2 g     F .text	00000016 ADC_ITConfig
000022c8 g     F .text	0000012c _printf_common
200000a0 g     O .data	00000004 _impure_ptr
000013e8  w      .text	00000000 TIM1_UP_IRQHandler
000029d2 g     F .text	00000134 __sflush_r
000013c2  w      .text	00000000 WWDG_IRQHandler
00000dea g     F .text	00000052 printHex
000013ee  w      .text	00000000 TIM2_IRQHandler
20000800 g       .stack	00000000 _eusrstack
000000a0 g     F .text	0000000a .hidden __riscv_save_2
000013c0  w      .text	00000000 SW_Handler
00000bda g     F .text	000000aa hydro_sign_final_create
0000146c g     F .text	00000026 ADC_DeInit
00001202 g     F .text	00000026 ADC1_launch
00001152 g     F .text	000000b0 ADC1_CFG
000013e6  w      .text	00000000 TIM1_BRK_IRQHandler
00002b9a g     F .text	00000062 __swhatbuf_r
00001492 g     F .text	00000050 ADC_Init
00001916 g     F .text	0000000a USART_SendData
00000886 g     F .text	0000003c hydro_random_ratchet
000019ee g     F .text	0000004c _write
200000a8 g       .data	00000000 _edata
20000134 g       .bss	00000000 _end
00003230 g       .dlalign	00000000 _data_lma
00002714 g     F .text	0000004e __swrite
00002002 g     F .text	000002c6 _vfiprintf_r
00001e5c g     F .text	00000060 _fwalk_reent
000010ce g     F .text	0000006e SystemCoreClockUpdate
00000124 g     F .text	00000024 .hidden __modsi3
00002e10 g     F .text	0000000c _kill
000013d0  w      .text	00000000 DMA1_Channel2_IRQHandler
000031d4 g     O .text	00000020 __sf_fake_stdout
00002e28 g     F .text	0000000c _read
000013f0  w      .text	00000000 handle_reset
000013c6  w      .text	00000000 FLASH_IRQHandler
000000a0 g     F .text	0000000a .hidden __riscv_save_0
00002e34 g     F .text	00000002 _exit
00001a66 g     F .text	0000006a .hidden __muldi3
000013e2  w      .text	00000000 USART1_IRQHandler
00002bfc g     F .text	0000009c __smakebuf_r
00001704 g     F .text	00000014 RCC_LSICmd
000023f4 g     F .text	000002c6 _printf_i
200000b4 g     O .bss	00000004 __malloc_sbrk_start
000017f4 g     F .text	0000001e RCC_APB2PeriphResetCmd
000013e0  w      .text	00000000 I2C1_ER_IRQHandler
000016d6 g     F .text	00000006 NVIC_PriorityGroupConfig
200000b0 g     O .bss	00000004 __malloc_free_list
000000aa g     F .text	0000000a .hidden __riscv_restore_1
00002002 g     F .text	000002c6 _vfprintf_r
0000092e g     F .text	0000008e hydro_hash_init
00002de0 g     F .text	0000000c _close
00001c5a g     F .text	0000000e raise



Disassembly of section .init:

00000000 <_sinit>:
   0:	3f00106f          	j	13f0 <handle_reset>
   4:	0000                	unimp
   6:	0000                	unimp
   8:	0dc4                	addi	s1,sp,724
   a:	0000                	unimp
   c:	0dc8                	addi	a0,sp,724
	...
  2e:	0000                	unimp
  30:	0dca                	slli	s11,s11,0x12
  32:	0000                	unimp
  34:	0000                	unimp
  36:	0000                	unimp
  38:	13c0                	addi	s0,sp,484
  3a:	0000                	unimp
  3c:	0000                	unimp
  3e:	0000                	unimp
  40:	13c2                	slli	t2,t2,0x30
  42:	0000                	unimp
  44:	13c4                	addi	s1,sp,484
  46:	0000                	unimp
  48:	13c6                	slli	t2,t2,0x31
  4a:	0000                	unimp
  4c:	13c8                	addi	a0,sp,484
  4e:	0000                	unimp
  50:	13ca                	slli	t2,t2,0x32
  52:	0000                	unimp
  54:	13cc                	addi	a1,sp,484
  56:	0000                	unimp
  58:	13ce                	slli	t2,t2,0x33
  5a:	0000                	unimp
  5c:	13d0                	addi	a2,sp,484
  5e:	0000                	unimp
  60:	13d2                	slli	t2,t2,0x34
  62:	0000                	unimp
  64:	13d4                	addi	a3,sp,484
  66:	0000                	unimp
  68:	13d6                	slli	t2,t2,0x35
  6a:	0000                	unimp
  6c:	13d8                	addi	a4,sp,484
  6e:	0000                	unimp
  70:	13da                	slli	t2,t2,0x36
  72:	0000                	unimp
  74:	1228                	addi	a0,sp,296
  76:	0000                	unimp
  78:	13de                	slli	t2,t2,0x37
  7a:	0000                	unimp
  7c:	13e0                	addi	s0,sp,492
  7e:	0000                	unimp
  80:	13e2                	slli	t2,t2,0x38
  82:	0000                	unimp
  84:	13e4                	addi	s1,sp,492
  86:	0000                	unimp
  88:	13e6                	slli	t2,t2,0x39
  8a:	0000                	unimp
  8c:	13e8                	addi	a0,sp,492
  8e:	0000                	unimp
  90:	13ea                	slli	t2,t2,0x3a
  92:	0000                	unimp
  94:	13ec                	addi	a1,sp,492
  96:	0000                	unimp
  98:	13ee                	slli	t2,t2,0x3b
  9a:	0000                	unimp
  9c:	0000                	unimp
	...

Disassembly of section .text:

000000a0 <__riscv_save_0>:
      a0:	1151                	addi	sp,sp,-12
      a2:	c026                	sw	s1,0(sp)
      a4:	c222                	sw	s0,4(sp)
      a6:	c406                	sw	ra,8(sp)
      a8:	8282                	jr	t0

000000aa <__riscv_restore_0>:
      aa:	4482                	lw	s1,0(sp)
      ac:	4412                	lw	s0,4(sp)
      ae:	40a2                	lw	ra,8(sp)
      b0:	0131                	addi	sp,sp,12
      b2:	8082                	ret

000000b4 <__mulsi3>:
      b4:	862a                	mv	a2,a0
      b6:	4501                	li	a0,0
      b8:	0015f693          	andi	a3,a1,1
      bc:	c291                	beqz	a3,c0 <__mulsi3+0xc>
      be:	9532                	add	a0,a0,a2
      c0:	8185                	srli	a1,a1,0x1
      c2:	0606                	slli	a2,a2,0x1
      c4:	f9f5                	bnez	a1,b8 <__mulsi3+0x4>
      c6:	8082                	ret
      c8:	0000                	unimp
	...

000000cc <__divsi3>:
      cc:	02054e63          	bltz	a0,108 <__umodsi3+0x8>
      d0:	0405c363          	bltz	a1,116 <__umodsi3+0x16>

000000d4 <__udivsi3>:
      d4:	862e                	mv	a2,a1
      d6:	85aa                	mv	a1,a0
      d8:	557d                	li	a0,-1
      da:	c215                	beqz	a2,fe <__udivsi3+0x2a>
      dc:	4685                	li	a3,1
      de:	00b67863          	bgeu	a2,a1,ee <__udivsi3+0x1a>
      e2:	00c05663          	blez	a2,ee <__udivsi3+0x1a>
      e6:	0606                	slli	a2,a2,0x1
      e8:	0686                	slli	a3,a3,0x1
      ea:	feb66ce3          	bltu	a2,a1,e2 <__udivsi3+0xe>
      ee:	4501                	li	a0,0
      f0:	00c5e463          	bltu	a1,a2,f8 <__udivsi3+0x24>
      f4:	8d91                	sub	a1,a1,a2
      f6:	8d55                	or	a0,a0,a3
      f8:	8285                	srli	a3,a3,0x1
      fa:	8205                	srli	a2,a2,0x1
      fc:	faf5                	bnez	a3,f0 <__udivsi3+0x1c>
      fe:	8082                	ret

00000100 <__umodsi3>:
     100:	8286                	mv	t0,ra
     102:	3fc9                	jal	d4 <__udivsi3>
     104:	852e                	mv	a0,a1
     106:	8282                	jr	t0
     108:	40a00533          	neg	a0,a0
     10c:	0005d763          	bgez	a1,11a <__umodsi3+0x1a>
     110:	40b005b3          	neg	a1,a1
     114:	b7c1                	j	d4 <__udivsi3>
     116:	40b005b3          	neg	a1,a1
     11a:	8286                	mv	t0,ra
     11c:	3f65                	jal	d4 <__udivsi3>
     11e:	40a00533          	neg	a0,a0
     122:	8282                	jr	t0

00000124 <__modsi3>:
     124:	8286                	mv	t0,ra
     126:	0005c763          	bltz	a1,134 <__modsi3+0x10>
     12a:	00054963          	bltz	a0,13c <__modsi3+0x18>
     12e:	375d                	jal	d4 <__udivsi3>
     130:	852e                	mv	a0,a1
     132:	8282                	jr	t0
     134:	40b005b3          	neg	a1,a1
     138:	fe055be3          	bgez	a0,12e <__modsi3+0xa>
     13c:	40a00533          	neg	a0,a0
     140:	3f51                	jal	d4 <__udivsi3>
     142:	40b00533          	neg	a0,a1
     146:	8282                	jr	t0
	...

0000014a <memset>:
     14a:	433d                	li	t1,15
     14c:	872a                	mv	a4,a0
     14e:	02c37363          	bgeu	t1,a2,174 <memset+0x2a>
     152:	00f77793          	andi	a5,a4,15
     156:	efbd                	bnez	a5,1d4 <memset+0x8a>
     158:	e5ad                	bnez	a1,1c2 <memset+0x78>
     15a:	ff067693          	andi	a3,a2,-16
     15e:	8a3d                	andi	a2,a2,15
     160:	96ba                	add	a3,a3,a4
     162:	c30c                	sw	a1,0(a4)
     164:	c34c                	sw	a1,4(a4)
     166:	c70c                	sw	a1,8(a4)
     168:	c74c                	sw	a1,12(a4)
     16a:	0741                	addi	a4,a4,16
     16c:	fed76be3          	bltu	a4,a3,162 <memset+0x18>
     170:	e211                	bnez	a2,174 <memset+0x2a>
     172:	8082                	ret
     174:	40c306b3          	sub	a3,t1,a2
     178:	068a                	slli	a3,a3,0x2
     17a:	00000297          	auipc	t0,0x0
     17e:	9696                	add	a3,a3,t0
     180:	00a68067          	jr	10(a3)
     184:	00b70723          	sb	a1,14(a4)
     188:	00b706a3          	sb	a1,13(a4)
     18c:	00b70623          	sb	a1,12(a4)
     190:	00b705a3          	sb	a1,11(a4)
     194:	00b70523          	sb	a1,10(a4)
     198:	00b704a3          	sb	a1,9(a4)
     19c:	00b70423          	sb	a1,8(a4)
     1a0:	00b703a3          	sb	a1,7(a4)
     1a4:	00b70323          	sb	a1,6(a4)
     1a8:	00b702a3          	sb	a1,5(a4)
     1ac:	00b70223          	sb	a1,4(a4)
     1b0:	00b701a3          	sb	a1,3(a4)
     1b4:	00b70123          	sb	a1,2(a4)
     1b8:	00b700a3          	sb	a1,1(a4)
     1bc:	00b70023          	sb	a1,0(a4)
     1c0:	8082                	ret
     1c2:	0ff5f593          	andi	a1,a1,255
     1c6:	00859693          	slli	a3,a1,0x8
     1ca:	8dd5                	or	a1,a1,a3
     1cc:	01059693          	slli	a3,a1,0x10
     1d0:	8dd5                	or	a1,a1,a3
     1d2:	b761                	j	15a <memset+0x10>
     1d4:	00279693          	slli	a3,a5,0x2
     1d8:	00000297          	auipc	t0,0x0
     1dc:	9696                	add	a3,a3,t0
     1de:	8286                	mv	t0,ra
     1e0:	fa8680e7          	jalr	-88(a3)
     1e4:	8096                	mv	ra,t0
     1e6:	17c1                	addi	a5,a5,-16
     1e8:	8f1d                	sub	a4,a4,a5
     1ea:	963e                	add	a2,a2,a5
     1ec:	f8c374e3          	bgeu	t1,a2,174 <memset+0x2a>
     1f0:	b7a5                	j	158 <memset+0xe>

000001f2 <mem_cpy>:
     1f2:	4781                	li	a5,0
     1f4:	00c79363          	bne	a5,a2,1fa <mem_cpy+0x8>
     1f8:	8082                	ret
     1fa:	00f586b3          	add	a3,a1,a5
     1fe:	0006c683          	lbu	a3,0(a3)
     202:	00f50733          	add	a4,a0,a5
     206:	0785                	addi	a5,a5,1
     208:	00d70023          	sb	a3,0(a4)
     20c:	b7e5                	j	1f4 <mem_cpy+0x2>

0000020e <mem_zero>:
     20e:	4781                	li	a5,0
     210:	00b79363          	bne	a5,a1,216 <mem_zero+0x8>
     214:	8082                	ret
     216:	00f50733          	add	a4,a0,a5
     21a:	00070023          	sb	zero,0(a4)
     21e:	0785                	addi	a5,a5,1
     220:	bfc5                	j	210 <mem_zero+0x2>

00000222 <gimli_core_u8>:
     222:	02f54783          	lbu	a5,47(a0)
     226:	1161                	addi	sp,sp,-8
     228:	c222                	sw	s0,4(sp)
     22a:	8dbd                	xor	a1,a1,a5
     22c:	02b507a3          	sb	a1,47(a0)
     230:	9e3785b7          	lui	a1,0x9e378
     234:	c026                	sw	s1,0(sp)
     236:	4661                	li	a2,24
     238:	01050313          	addi	t1,a0,16
     23c:	90058593          	addi	a1,a1,-1792 # 9e377900 <__global_pointer$+0x7e377060>
     240:	4289                	li	t0,2
     242:	86aa                	mv	a3,a0
     244:	429c                	lw	a5,0(a3)
     246:	0691                	addi	a3,a3,4
     248:	0087d713          	srli	a4,a5,0x8
     24c:	07e2                	slli	a5,a5,0x18
     24e:	8fd9                	or	a5,a5,a4
     250:	46d8                	lw	a4,12(a3)
     252:	00971393          	slli	t2,a4,0x9
     256:	835d                	srli	a4,a4,0x17
     258:	00776733          	or	a4,a4,t2
     25c:	01c6a383          	lw	t2,28(a3)
     260:	007774b3          	and	s1,a4,t2
     264:	00139413          	slli	s0,t2,0x1
     268:	8c3d                	xor	s0,s0,a5
     26a:	048a                	slli	s1,s1,0x2
     26c:	8c25                	xor	s0,s0,s1
     26e:	cec0                	sw	s0,28(a3)
     270:	00e7c4b3          	xor	s1,a5,a4
     274:	0077e433          	or	s0,a5,t2
     278:	8ff9                	and	a5,a5,a4
     27a:	0406                	slli	s0,s0,0x1
     27c:	078e                	slli	a5,a5,0x3
     27e:	00774733          	xor	a4,a4,t2
     282:	8c25                	xor	s0,s0,s1
     284:	8fb9                	xor	a5,a5,a4
     286:	c6c0                	sw	s0,12(a3)
     288:	fef6ae23          	sw	a5,-4(a3)
     28c:	fad31ce3          	bne	t1,a3,244 <gimli_core_u8+0x22>
     290:	00367793          	andi	a5,a2,3
     294:	cb89                	beqz	a5,2a6 <gimli_core_u8+0x84>
     296:	02578463          	beq	a5,t0,2be <gimli_core_u8+0x9c>
     29a:	167d                	addi	a2,a2,-1
     29c:	f25d                	bnez	a2,242 <gimli_core_u8+0x20>
     29e:	4412                	lw	s0,4(sp)
     2a0:	4482                	lw	s1,0(sp)
     2a2:	0121                	addi	sp,sp,8
     2a4:	8082                	ret
     2a6:	411c                	lw	a5,0(a0)
     2a8:	4158                	lw	a4,4(a0)
     2aa:	4554                	lw	a3,12(a0)
     2ac:	c15c                	sw	a5,4(a0)
     2ae:	451c                	lw	a5,8(a0)
     2b0:	c514                	sw	a3,8(a0)
     2b2:	c55c                	sw	a5,12(a0)
     2b4:	00b667b3          	or	a5,a2,a1
     2b8:	8fb9                	xor	a5,a5,a4
     2ba:	c11c                	sw	a5,0(a0)
     2bc:	bff9                	j	29a <gimli_core_u8+0x78>
     2be:	411c                	lw	a5,0(a0)
     2c0:	4518                	lw	a4,8(a0)
     2c2:	c51c                	sw	a5,8(a0)
     2c4:	c118                	sw	a4,0(a0)
     2c6:	415c                	lw	a5,4(a0)
     2c8:	4558                	lw	a4,12(a0)
     2ca:	c55c                	sw	a5,12(a0)
     2cc:	c158                	sw	a4,4(a0)
     2ce:	b7f1                	j	29a <gimli_core_u8+0x78>

000002d0 <hydro_x25519_propagate>:
     2d0:	4d5c                	lw	a5,28(a0)
     2d2:	0586                	slli	a1,a1,0x1
     2d4:	00179713          	slli	a4,a5,0x1
     2d8:	83fd                	srli	a5,a5,0x1f
     2da:	8fcd                	or	a5,a5,a1
     2dc:	00279593          	slli	a1,a5,0x2
     2e0:	95be                	add	a1,a1,a5
     2e2:	8305                	srli	a4,a4,0x1
     2e4:	058a                	slli	a1,a1,0x2
     2e6:	cd58                	sw	a4,28(a0)
     2e8:	8d9d                	sub	a1,a1,a5
     2ea:	02050713          	addi	a4,a0,32
     2ee:	411c                	lw	a5,0(a0)
     2f0:	0511                	addi	a0,a0,4
     2f2:	97ae                	add	a5,a5,a1
     2f4:	fef52e23          	sw	a5,-4(a0)
     2f8:	00b7b5b3          	sltu	a1,a5,a1
     2fc:	fea719e3          	bne	a4,a0,2ee <hydro_x25519_propagate+0x1e>
     300:	8082                	ret

00000302 <hydro_x25519_add>:
     302:	d9fff2ef          	jal	t0,a0 <__riscv_save_0>
     306:	83ae                	mv	t2,a1
     308:	4701                	li	a4,0
     30a:	4581                	li	a1,0
     30c:	02000293          	li	t0,32
     310:	00e387b3          	add	a5,t2,a4
     314:	4394                	lw	a3,0(a5)
     316:	00e607b3          	add	a5,a2,a4
     31a:	439c                	lw	a5,0(a5)
     31c:	97b6                	add	a5,a5,a3
     31e:	00b78333          	add	t1,a5,a1
     322:	00d7b6b3          	sltu	a3,a5,a3
     326:	00f337b3          	sltu	a5,t1,a5
     32a:	00d785b3          	add	a1,a5,a3
     32e:	00e507b3          	add	a5,a0,a4
     332:	0067a023          	sw	t1,0(a5)
     336:	0711                	addi	a4,a4,4
     338:	fc571ce3          	bne	a4,t0,310 <hydro_x25519_add+0xe>
     33c:	3f51                	jal	2d0 <hydro_x25519_propagate>
     33e:	b3b5                	j	aa <__riscv_restore_0>

00000340 <hydro_x25519_sub>:
     340:	d61ff2ef          	jal	t0,a0 <__riscv_save_0>
     344:	4701                	li	a4,0
     346:	fb400793          	li	a5,-76
     34a:	537d                	li	t1,-1
     34c:	02000293          	li	t0,32
     350:	00e586b3          	add	a3,a1,a4
     354:	4294                	lw	a3,0(a3)
     356:	00e503b3          	add	t2,a0,a4
     35a:	97b6                	add	a5,a5,a3
     35c:	00d7b6b3          	sltu	a3,a5,a3
     360:	969a                	add	a3,a3,t1
     362:	00e60333          	add	t1,a2,a4
     366:	00032303          	lw	t1,0(t1)
     36a:	0711                	addi	a4,a4,4
     36c:	40678333          	sub	t1,a5,t1
     370:	0067b7b3          	sltu	a5,a5,t1
     374:	0063a023          	sw	t1,0(t2)
     378:	40f687b3          	sub	a5,a3,a5
     37c:	41f7d313          	srai	t1,a5,0x1f
     380:	fc5718e3          	bne	a4,t0,350 <hydro_x25519_sub+0x10>
     384:	00278593          	addi	a1,a5,2
     388:	37a1                	jal	2d0 <hydro_x25519_propagate>
     38a:	b305                	j	aa <__riscv_restore_0>

0000038c <hydro_x25519_mul>:
     38c:	d15ff2ef          	jal	t0,a0 <__riscv_save_0>
     390:	f9810113          	addi	sp,sp,-104
     394:	c02e                	sw	a1,0(sp)
     396:	c632                	sw	a2,12(sp)
     398:	842a                	mv	s0,a0
     39a:	04000613          	li	a2,64
     39e:	4581                	li	a1,0
     3a0:	1028                	addi	a0,sp,40
     3a2:	c836                	sw	a3,16(sp)
     3a4:	335d                	jal	14a <memset>
     3a6:	4682                	lw	a3,0(sp)
     3a8:	103c                	addi	a5,sp,40
     3aa:	873e                	mv	a4,a5
     3ac:	02068693          	addi	a3,a3,32
     3b0:	4481                	li	s1,0
     3b2:	c436                	sw	a3,8(sp)
     3b4:	4632                	lw	a2,12(sp)
     3b6:	00249693          	slli	a3,s1,0x2
     3ba:	4302                	lw	t1,0(sp)
     3bc:	96b2                	add	a3,a3,a2
     3be:	4294                	lw	a3,0(a3)
     3c0:	82ba                	mv	t0,a4
     3c2:	4381                	li	t2,0
     3c4:	c236                	sw	a3,4(sp)
     3c6:	4612                	lw	a2,4(sp)
     3c8:	00032503          	lw	a0,0(t1)
     3cc:	4681                	li	a3,0
     3ce:	4581                	li	a1,0
     3d0:	d23e                	sw	a5,36(sp)
     3d2:	d016                	sw	t0,32(sp)
     3d4:	ce3a                	sw	a4,28(sp)
     3d6:	cc1e                	sw	t2,24(sp)
     3d8:	ca1a                	sw	t1,20(sp)
     3da:	68c010ef          	jal	ra,1a66 <__muldi3>
     3de:	5282                	lw	t0,32(sp)
     3e0:	43e2                	lw	t2,24(sp)
     3e2:	4352                	lw	t1,20(sp)
     3e4:	0002a683          	lw	a3,0(t0) # 1d8 <memset+0x8e>
     3e8:	4772                	lw	a4,28(sp)
     3ea:	0311                	addi	t1,t1,4
     3ec:	00768633          	add	a2,a3,t2
     3f0:	00d636b3          	sltu	a3,a2,a3
     3f4:	95b6                	add	a1,a1,a3
     3f6:	46a2                	lw	a3,8(sp)
     3f8:	962a                	add	a2,a2,a0
     3fa:	00a63533          	sltu	a0,a2,a0
     3fe:	00c2a023          	sw	a2,0(t0)
     402:	00b503b3          	add	t2,a0,a1
     406:	0291                	addi	t0,t0,4
     408:	5792                	lw	a5,36(sp)
     40a:	fa669ee3          	bne	a3,t1,3c6 <hydro_x25519_mul+0x3a>
     40e:	46c2                	lw	a3,16(sp)
     410:	02772023          	sw	t2,32(a4)
     414:	0485                	addi	s1,s1,1
     416:	0711                	addi	a4,a4,4
     418:	f8969ee3          	bne	a3,s1,3b4 <hydro_x25519_mul+0x28>
     41c:	8722                	mv	a4,s0
     41e:	02040313          	addi	t1,s0,32
     422:	4581                	li	a1,0
     424:	0007a283          	lw	t0,0(a5)
     428:	5388                	lw	a0,32(a5)
     42a:	02600613          	li	a2,38
     42e:	00b284b3          	add	s1,t0,a1
     432:	0054b2b3          	sltu	t0,s1,t0
     436:	4681                	li	a3,0
     438:	4581                	li	a1,0
     43a:	c63a                	sw	a4,12(sp)
     43c:	c41a                	sw	t1,8(sp)
     43e:	c216                	sw	t0,4(sp)
     440:	c03e                	sw	a5,0(sp)
     442:	624010ef          	jal	ra,1a66 <__muldi3>
     446:	4732                	lw	a4,12(sp)
     448:	4292                	lw	t0,4(sp)
     44a:	4782                	lw	a5,0(sp)
     44c:	4322                	lw	t1,8(sp)
     44e:	9526                	add	a0,a0,s1
     450:	009534b3          	sltu	s1,a0,s1
     454:	9596                	add	a1,a1,t0
     456:	c308                	sw	a0,0(a4)
     458:	0711                	addi	a4,a4,4
     45a:	95a6                	add	a1,a1,s1
     45c:	0791                	addi	a5,a5,4
     45e:	fce313e3          	bne	t1,a4,424 <hydro_x25519_mul+0x98>
     462:	8522                	mv	a0,s0
     464:	35b5                	jal	2d0 <hydro_x25519_propagate>
     466:	06810113          	addi	sp,sp,104
     46a:	b181                	j	aa <__riscv_restore_0>

0000046c <hydro_x25519_mul1>:
     46c:	c35ff2ef          	jal	t0,a0 <__riscv_save_0>
     470:	46a1                	li	a3,8
     472:	862a                	mv	a2,a0
     474:	3f21                	jal	38c <hydro_x25519_mul>
     476:	b915                	j	aa <__riscv_restore_0>

00000478 <hydro_x25519_condswap>:
     478:	04058693          	addi	a3,a1,64
     47c:	4118                	lw	a4,0(a0)
     47e:	419c                	lw	a5,0(a1)
     480:	0591                	addi	a1,a1,4
     482:	0511                	addi	a0,a0,4
     484:	8fb9                	xor	a5,a5,a4
     486:	8ff1                	and	a5,a5,a2
     488:	8f3d                	xor	a4,a4,a5
     48a:	fee52e23          	sw	a4,-4(a0)
     48e:	ffc5a703          	lw	a4,-4(a1)
     492:	8fb9                	xor	a5,a5,a4
     494:	fef5ae23          	sw	a5,-4(a1)
     498:	fed592e3          	bne	a1,a3,47c <hydro_x25519_condswap+0x4>
     49c:	8082                	ret

0000049e <hydro_x25519_canon>:
     49e:	c03ff2ef          	jal	t0,a0 <__riscv_save_0>
     4a2:	842a                	mv	s0,a0
     4a4:	02050493          	addi	s1,a0,32
     4a8:	87aa                	mv	a5,a0
     4aa:	45cd                	li	a1,19
     4ac:	4398                	lw	a4,0(a5)
     4ae:	0791                	addi	a5,a5,4
     4b0:	972e                	add	a4,a4,a1
     4b2:	fee7ae23          	sw	a4,-4(a5)
     4b6:	00b735b3          	sltu	a1,a4,a1
     4ba:	fef499e3          	bne	s1,a5,4ac <hydro_x25519_canon+0xe>
     4be:	3d09                	jal	2d0 <hydro_x25519_propagate>
     4c0:	4501                	li	a0,0
     4c2:	57b5                	li	a5,-19
     4c4:	56fd                	li	a3,-1
     4c6:	4018                	lw	a4,0(s0)
     4c8:	0411                	addi	s0,s0,4
     4ca:	97ba                	add	a5,a5,a4
     4cc:	00e7b733          	sltu	a4,a5,a4
     4d0:	fef42e23          	sw	a5,-4(s0)
     4d4:	8d5d                	or	a0,a0,a5
     4d6:	00d707b3          	add	a5,a4,a3
     4da:	41f7d693          	srai	a3,a5,0x1f
     4de:	fe8494e3          	bne	s1,s0,4c6 <hydro_x25519_canon+0x28>
     4e2:	00a03533          	snez	a0,a0
     4e6:	157d                	addi	a0,a0,-1
     4e8:	b6c9                	j	aa <__riscv_restore_0>

000004ea <hydro_x25519_sc_montmul>:
     4ea:	bb7ff2ef          	jal	t0,a0 <__riscv_save_0>
     4ee:	fc810113          	addi	sp,sp,-56
     4f2:	02058793          	addi	a5,a1,32
     4f6:	cc3e                	sw	a5,24(sp)
     4f8:	125487b7          	lui	a5,0x12548
     4fc:	e1b78793          	addi	a5,a5,-485 # 12547e1b <_data_lma+0x12544beb>
     500:	842a                	mv	s0,a0
     502:	ce32                	sw	a2,28(sp)
     504:	832e                	mv	t1,a1
     506:	c602                	sw	zero,12(sp)
     508:	d03e                	sw	a5,32(sp)
     50a:	00032783          	lw	a5,0(t1)
     50e:	5382                	lw	t2,32(sp)
     510:	84a2                	mv	s1,s0
     512:	ca3e                	sw	a5,20(sp)
     514:	678d                	lui	a5,0x3
     516:	e6478713          	addi	a4,a5,-412 # 2e64 <hydro_x25519_sc_p>
     51a:	e6478793          	addi	a5,a5,-412
     51e:	c43a                	sw	a4,8(sp)
     520:	c83e                	sw	a5,16(sp)
     522:	c222                	sw	s0,4(sp)
     524:	4281                	li	t0,0
     526:	c002                	sw	zero,0(sp)
     528:	4701                	li	a4,0
     52a:	00271793          	slli	a5,a4,0x2
     52e:	d23a                	sw	a4,36(sp)
     530:	4772                	lw	a4,28(sp)
     532:	4652                	lw	a2,20(sp)
     534:	4681                	li	a3,0
     536:	97ba                	add	a5,a5,a4
     538:	4388                	lw	a0,0(a5)
     53a:	4581                	li	a1,0
     53c:	d81a                	sw	t1,48(sp)
     53e:	d616                	sw	t0,44(sp)
     540:	d41e                	sw	t2,40(sp)
     542:	524010ef          	jal	ra,1a66 <__muldi3>
     546:	4792                	lw	a5,4(sp)
     548:	53a2                	lw	t2,40(sp)
     54a:	52b2                	lw	t0,44(sp)
     54c:	4394                	lw	a3,0(a5)
     54e:	4782                	lw	a5,0(sp)
     550:	5342                	lw	t1,48(sp)
     552:	97b6                	add	a5,a5,a3
     554:	00d7b6b3          	sltu	a3,a5,a3
     558:	97aa                	add	a5,a5,a0
     55a:	00a7b533          	sltu	a0,a5,a0
     55e:	95b6                	add	a1,a1,a3
     560:	00b50733          	add	a4,a0,a1
     564:	c03a                	sw	a4,0(sp)
     566:	5712                	lw	a4,36(sp)
     568:	eb19                	bnez	a4,57e <hydro_x25519_sc_montmul+0x94>
     56a:	85be                	mv	a1,a5
     56c:	851e                	mv	a0,t2
     56e:	d43a                	sw	a4,40(sp)
     570:	d23e                	sw	a5,36(sp)
     572:	3689                	jal	b4 <__mulsi3>
     574:	5342                	lw	t1,48(sp)
     576:	52b2                	lw	t0,44(sp)
     578:	5722                	lw	a4,40(sp)
     57a:	5792                	lw	a5,36(sp)
     57c:	83aa                	mv	t2,a0
     57e:	92be                	add	t0,t0,a5
     580:	00f2b7b3          	sltu	a5,t0,a5
     584:	d43e                	sw	a5,40(sp)
     586:	47c2                	lw	a5,16(sp)
     588:	861e                	mv	a2,t2
     58a:	4681                	li	a3,0
     58c:	4388                	lw	a0,0(a5)
     58e:	4581                	li	a1,0
     590:	da1a                	sw	t1,52(sp)
     592:	d83a                	sw	a4,48(sp)
     594:	d616                	sw	t0,44(sp)
     596:	d21e                	sw	t2,36(sp)
     598:	4ce010ef          	jal	ra,1a66 <__muldi3>
     59c:	52b2                	lw	t0,44(sp)
     59e:	57a2                	lw	a5,40(sp)
     5a0:	5742                	lw	a4,48(sp)
     5a2:	9516                	add	a0,a0,t0
     5a4:	005532b3          	sltu	t0,a0,t0
     5a8:	95be                	add	a1,a1,a5
     5aa:	92ae                	add	t0,t0,a1
     5ac:	5392                	lw	t2,36(sp)
     5ae:	5352                	lw	t1,52(sp)
     5b0:	c701                	beqz	a4,5b8 <hydro_x25519_sc_montmul+0xce>
     5b2:	4792                	lw	a5,4(sp)
     5b4:	fea7ae23          	sw	a0,-4(a5)
     5b8:	4792                	lw	a5,4(sp)
     5ba:	0705                	addi	a4,a4,1
     5bc:	0791                	addi	a5,a5,4
     5be:	c23e                	sw	a5,4(sp)
     5c0:	47c2                	lw	a5,16(sp)
     5c2:	0791                	addi	a5,a5,4
     5c4:	c83e                	sw	a5,16(sp)
     5c6:	47a1                	li	a5,8
     5c8:	f6f711e3          	bne	a4,a5,52a <hydro_x25519_sc_montmul+0x40>
     5cc:	4782                	lw	a5,0(sp)
     5ce:	0311                	addi	t1,t1,4
     5d0:	92be                	add	t0,t0,a5
     5d2:	00f2b5b3          	sltu	a1,t0,a5
     5d6:	47b2                	lw	a5,12(sp)
     5d8:	9796                	add	a5,a5,t0
     5da:	0057b2b3          	sltu	t0,a5,t0
     5de:	cc5c                	sw	a5,28(s0)
     5e0:	47e2                	lw	a5,24(sp)
     5e2:	00b28733          	add	a4,t0,a1
     5e6:	c63a                	sw	a4,12(sp)
     5e8:	f26791e3          	bne	a5,t1,50a <hydro_x25519_sc_montmul+0x20>
     5ec:	46a2                	lw	a3,8(sp)
     5ee:	02040793          	addi	a5,s0,32
     5f2:	4281                	li	t0,0
     5f4:	4601                	li	a2,0
     5f6:	4018                	lw	a4,0(s0)
     5f8:	0411                	addi	s0,s0,4
     5fa:	0691                	addi	a3,a3,4
     5fc:	92ba                	add	t0,t0,a4
     5fe:	00e2b733          	sltu	a4,t0,a4
     602:	9732                	add	a4,a4,a2
     604:	ffc6a603          	lw	a2,-4(a3)
     608:	40c28633          	sub	a2,t0,a2
     60c:	00c2b2b3          	sltu	t0,t0,a2
     610:	fec42e23          	sw	a2,-4(s0)
     614:	405702b3          	sub	t0,a4,t0
     618:	41f2d613          	srai	a2,t0,0x1f
     61c:	fc879de3          	bne	a5,s0,5f6 <hydro_x25519_sc_montmul+0x10c>
     620:	4732                	lw	a4,12(sp)
     622:	4401                	li	s0,0
     624:	92ba                	add	t0,t0,a4
     626:	405002b3          	neg	t0,t0
     62a:	c23e                	sw	a5,4(sp)
     62c:	47a2                	lw	a5,8(sp)
     62e:	8616                	mv	a2,t0
     630:	4681                	li	a3,0
     632:	4388                	lw	a0,0(a5)
     634:	4581                	li	a1,0
     636:	c016                	sw	t0,0(sp)
     638:	42e010ef          	jal	ra,1a66 <__muldi3>
     63c:	47a2                	lw	a5,8(sp)
     63e:	4094                	lw	a3,0(s1)
     640:	0491                	addi	s1,s1,4
     642:	0791                	addi	a5,a5,4
     644:	00868733          	add	a4,a3,s0
     648:	c43e                	sw	a5,8(sp)
     64a:	4792                	lw	a5,4(sp)
     64c:	00d736b3          	sltu	a3,a4,a3
     650:	972a                	add	a4,a4,a0
     652:	00a73533          	sltu	a0,a4,a0
     656:	96ae                	add	a3,a3,a1
     658:	fee4ae23          	sw	a4,-4(s1)
     65c:	00d50433          	add	s0,a0,a3
     660:	4282                	lw	t0,0(sp)
     662:	fc9794e3          	bne	a5,s1,62a <hydro_x25519_sc_montmul+0x140>
     666:	03810113          	addi	sp,sp,56
     66a:	b481                	j	aa <__riscv_restore_0>

0000066c <hydro_x25519_swapin>:
     66c:	a35ff2ef          	jal	t0,a0 <__riscv_save_0>
     670:	02000613          	li	a2,32
     674:	46a010ef          	jal	ra,1ade <memcpy>
     678:	bc0d                	j	aa <__riscv_restore_0>

0000067a <hydro_x25519_swapout>:
     67a:	a27ff2ef          	jal	t0,a0 <__riscv_save_0>
     67e:	02000613          	li	a2,32
     682:	45c010ef          	jal	ra,1ade <memcpy>
     686:	b415                	j	aa <__riscv_restore_0>

00000688 <hydro_x25519_ladder_part1>:
     688:	a19ff2ef          	jal	t0,a0 <__riscv_save_0>
     68c:	08050793          	addi	a5,a0,128
     690:	02050493          	addi	s1,a0,32
     694:	842a                	mv	s0,a0
     696:	1171                	addi	sp,sp,-4
     698:	8626                	mv	a2,s1
     69a:	85aa                	mv	a1,a0
     69c:	853e                	mv	a0,a5
     69e:	c03e                	sw	a5,0(sp)
     6a0:	318d                	jal	302 <hydro_x25519_add>
     6a2:	8626                	mv	a2,s1
     6a4:	85a2                	mv	a1,s0
     6a6:	8526                	mv	a0,s1
     6a8:	3961                	jal	340 <hydro_x25519_sub>
     6aa:	06040613          	addi	a2,s0,96
     6ae:	04040593          	addi	a1,s0,64
     6b2:	8522                	mv	a0,s0
     6b4:	31b9                	jal	302 <hydro_x25519_add>
     6b6:	06040613          	addi	a2,s0,96
     6ba:	8532                	mv	a0,a2
     6bc:	04040593          	addi	a1,s0,64
     6c0:	3141                	jal	340 <hydro_x25519_sub>
     6c2:	08040593          	addi	a1,s0,128
     6c6:	06040513          	addi	a0,s0,96
     6ca:	334d                	jal	46c <hydro_x25519_mul1>
     6cc:	85a6                	mv	a1,s1
     6ce:	8522                	mv	a0,s0
     6d0:	3b71                	jal	46c <hydro_x25519_mul1>
     6d2:	8622                	mv	a2,s0
     6d4:	06040593          	addi	a1,s0,96
     6d8:	04040513          	addi	a0,s0,64
     6dc:	311d                	jal	302 <hydro_x25519_add>
     6de:	06040593          	addi	a1,s0,96
     6e2:	8622                	mv	a2,s0
     6e4:	852e                	mv	a0,a1
     6e6:	39a9                	jal	340 <hydro_x25519_sub>
     6e8:	08040593          	addi	a1,s0,128
     6ec:	852e                	mv	a0,a1
     6ee:	3bbd                	jal	46c <hydro_x25519_mul1>
     6f0:	85a6                	mv	a1,s1
     6f2:	8526                	mv	a0,s1
     6f4:	3ba5                	jal	46c <hydro_x25519_mul1>
     6f6:	8626                	mv	a2,s1
     6f8:	08040593          	addi	a1,s0,128
     6fc:	8522                	mv	a0,s0
     6fe:	3189                	jal	340 <hydro_x25519_sub>
     700:	660d                	lui	a2,0x3
     702:	4685                	li	a3,1
     704:	85a2                	mv	a1,s0
     706:	8526                	mv	a0,s1
     708:	e6060613          	addi	a2,a2,-416 # 2e60 <hydro_x25519_a24>
     70c:	3141                	jal	38c <hydro_x25519_mul>
     70e:	4602                	lw	a2,0(sp)
     710:	85a6                	mv	a1,s1
     712:	8526                	mv	a0,s1
     714:	36fd                	jal	302 <hydro_x25519_add>
     716:	0111                	addi	sp,sp,4
     718:	ba49                	j	aa <__riscv_restore_0>

0000071a <hydro_x25519_core>:
     71a:	987ff2ef          	jal	t0,a0 <__riscv_save_0>
     71e:	fa810113          	addi	sp,sp,-88
     722:	842a                	mv	s0,a0
     724:	c02e                	sw	a1,0(sp)
     726:	04050493          	addi	s1,a0,64
     72a:	85b2                	mv	a1,a2
     72c:	0828                	addi	a0,sp,24
     72e:	c236                	sw	a3,4(sp)
     730:	3f35                	jal	66c <hydro_x25519_swapin>
     732:	08000593          	li	a1,128
     736:	8522                	mv	a0,s0
     738:	3cd9                	jal	20e <mem_zero>
     73a:	4785                	li	a5,1
     73c:	02000613          	li	a2,32
     740:	d03c                	sw	a5,96(s0)
     742:	c01c                	sw	a5,0(s0)
     744:	082c                	addi	a1,sp,24
     746:	8526                	mv	a0,s1
     748:	396010ef          	jal	ra,1ade <memcpy>
     74c:	4692                	lw	a3,4(sp)
     74e:	0ff00713          	li	a4,255
     752:	4601                	li	a2,0
     754:	4582                	lw	a1,0(sp)
     756:	40375793          	srai	a5,a4,0x3
     75a:	97ae                	add	a5,a5,a1
     75c:	0007c783          	lbu	a5,0(a5)
     760:	ca81                	beqz	a3,770 <hydro_x25519_core+0x56>
     762:	00770593          	addi	a1,a4,7
     766:	4539                	li	a0,14
     768:	08b56763          	bltu	a0,a1,7f6 <hydro_x25519_core+0xdc>
     76c:	0f87f793          	andi	a5,a5,248
     770:	00777593          	andi	a1,a4,7
     774:	40b7d7b3          	sra	a5,a5,a1
     778:	8b85                	andi	a5,a5,1
     77a:	40f007b3          	neg	a5,a5
     77e:	8e3d                	xor	a2,a2,a5
     780:	85a6                	mv	a1,s1
     782:	8522                	mv	a0,s0
     784:	ca36                	sw	a3,20(sp)
     786:	c83a                	sw	a4,16(sp)
     788:	c63e                	sw	a5,12(sp)
     78a:	31fd                	jal	478 <hydro_x25519_condswap>
     78c:	8522                	mv	a0,s0
     78e:	3ded                	jal	688 <hydro_x25519_ladder_part1>
     790:	02000613          	li	a2,32
     794:	082c                	addi	a1,sp,24
     796:	1828                	addi	a0,sp,56
     798:	346010ef          	jal	ra,1ade <memcpy>
     79c:	06040613          	addi	a2,s0,96
     7a0:	08040313          	addi	t1,s0,128
     7a4:	85b2                	mv	a1,a2
     7a6:	8532                	mv	a0,a2
     7a8:	c41a                	sw	t1,8(sp)
     7aa:	c232                	sw	a2,4(sp)
     7ac:	31c1                	jal	46c <hydro_x25519_mul1>
     7ae:	4612                	lw	a2,4(sp)
     7b0:	182c                	addi	a1,sp,56
     7b2:	8532                	mv	a0,a2
     7b4:	3965                	jal	46c <hydro_x25519_mul1>
     7b6:	85a6                	mv	a1,s1
     7b8:	8526                	mv	a0,s1
     7ba:	394d                	jal	46c <hydro_x25519_mul1>
     7bc:	85a2                	mv	a1,s0
     7be:	02040513          	addi	a0,s0,32
     7c2:	316d                	jal	46c <hydro_x25519_mul1>
     7c4:	4322                	lw	t1,8(sp)
     7c6:	8622                	mv	a2,s0
     7c8:	8522                	mv	a0,s0
     7ca:	859a                	mv	a1,t1
     7cc:	c21a                	sw	t1,4(sp)
     7ce:	3e8d                	jal	340 <hydro_x25519_sub>
     7d0:	4312                	lw	t1,4(sp)
     7d2:	8522                	mv	a0,s0
     7d4:	859a                	mv	a1,t1
     7d6:	3959                	jal	46c <hydro_x25519_mul1>
     7d8:	47b2                	lw	a5,12(sp)
     7da:	4742                	lw	a4,16(sp)
     7dc:	46d2                	lw	a3,20(sp)
     7de:	863e                	mv	a2,a5
     7e0:	177d                	addi	a4,a4,-1
     7e2:	57fd                	li	a5,-1
     7e4:	f6f718e3          	bne	a4,a5,754 <hydro_x25519_core+0x3a>
     7e8:	85a6                	mv	a1,s1
     7ea:	8522                	mv	a0,s0
     7ec:	3171                	jal	478 <hydro_x25519_condswap>
     7ee:	05810113          	addi	sp,sp,88
     7f2:	8b9ff06f          	j	aa <__riscv_restore_0>
     7f6:	f0870593          	addi	a1,a4,-248
     7fa:	451d                	li	a0,7
     7fc:	f6b56ae3          	bltu	a0,a1,770 <hydro_x25519_core+0x56>
     800:	07f7f793          	andi	a5,a5,127
     804:	0407e793          	ori	a5,a5,64
     808:	b7a5                	j	770 <hydro_x25519_core+0x56>

0000080a <hydro_x25519_scalarmult>:
     80a:	897ff2ef          	jal	t0,a0 <__riscv_save_0>
     80e:	f5810113          	addi	sp,sp,-168
     812:	c02a                	sw	a0,0(sp)
     814:	0028                	addi	a0,sp,8
     816:	c236                	sw	a3,4(sp)
     818:	3709                	jal	71a <hydro_x25519_core>
     81a:	1030                	addi	a2,sp,40
     81c:	0fd00413          	li	s0,253
     820:	84b2                	mv	s1,a2
     822:	46a1                	li	a3,8
     824:	85b2                	mv	a1,a2
     826:	10a8                	addi	a0,sp,104
     828:	3695                	jal	38c <hydro_x25519_mul>
     82a:	471d                	li	a4,7
     82c:	00874863          	blt	a4,s0,83c <hydro_x25519_scalarmult+0x32>
     830:	0eb00713          	li	a4,235
     834:	40875733          	sra	a4,a4,s0
     838:	8b05                	andi	a4,a4,1
     83a:	c701                	beqz	a4,842 <hydro_x25519_scalarmult+0x38>
     83c:	85a6                	mv	a1,s1
     83e:	10a8                	addi	a0,sp,104
     840:	3135                	jal	46c <hydro_x25519_mul1>
     842:	147d                	addi	s0,s0,-1
     844:	577d                	li	a4,-1
     846:	10b0                	addi	a2,sp,104
     848:	fce41de3          	bne	s0,a4,822 <hydro_x25519_scalarmult+0x18>
     84c:	85b2                	mv	a1,a2
     84e:	0028                	addi	a0,sp,8
     850:	3931                	jal	46c <hydro_x25519_mul1>
     852:	0028                	addi	a0,sp,8
     854:	31a9                	jal	49e <hydro_x25519_canon>
     856:	84aa                	mv	s1,a0
     858:	4502                	lw	a0,0(sp)
     85a:	002c                	addi	a1,sp,8
     85c:	3d39                	jal	67a <hydro_x25519_swapout>
     85e:	4792                	lw	a5,4(sp)
     860:	e391                	bnez	a5,864 <hydro_x25519_scalarmult+0x5a>
     862:	4481                	li	s1,0
     864:	8526                	mv	a0,s1
     866:	0a810113          	addi	sp,sp,168
     86a:	841ff06f          	j	aa <__riscv_restore_0>

0000086e <hydro_x25519_scalarmult_base_uniform>:
     86e:	833ff2ef          	jal	t0,a0 <__riscv_save_0>
     872:	660d                	lui	a2,0x3
     874:	4681                	li	a3,0
     876:	e4060613          	addi	a2,a2,-448 # 2e40 <hydro_x25519_BASE_POINT>
     87a:	3f41                	jal	80a <hydro_x25519_scalarmult>
     87c:	c119                	beqz	a0,882 <hydro_x25519_scalarmult_base_uniform+0x14>
     87e:	252010ef          	jal	ra,1ad0 <abort>
     882:	829ff06f          	j	aa <__riscv_restore_0>

00000886 <hydro_random_ratchet>:
     886:	81bff2ef          	jal	t0,a0 <__riscv_save_0>
     88a:	82018513          	addi	a0,gp,-2016 # 200000c0 <hydro_random_context>
     88e:	45c1                	li	a1,16
     890:	97fff0ef          	jal	ra,20e <mem_zero>
     894:	82018413          	addi	s0,gp,-2016 # 200000c0 <hydro_random_context>
     898:	581c                	lw	a5,48(s0)
     89a:	5854                	lw	a3,52(s0)
     89c:	4581                	li	a1,0
     89e:	00178713          	addi	a4,a5,1
     8a2:	c01c                	sw	a5,0(s0)
     8a4:	00f737b3          	sltu	a5,a4,a5
     8a8:	97b6                	add	a5,a5,a3
     8aa:	82018513          	addi	a0,gp,-2016 # 200000c0 <hydro_random_context>
     8ae:	d85c                	sw	a5,52(s0)
     8b0:	c054                	sw	a3,4(s0)
     8b2:	d818                	sw	a4,48(s0)
     8b4:	96fff0ef          	jal	ra,222 <gimli_core_u8>
     8b8:	47c1                	li	a5,16
     8ba:	02f40ca3          	sb	a5,57(s0)
     8be:	fecff06f          	j	aa <__riscv_restore_0>

000008c2 <hydro_hash_update>:
     8c2:	fdeff2ef          	jal	t0,a0 <__riscv_save_0>
     8c6:	1171                	addi	sp,sp,-4
     8c8:	842a                	mv	s0,a0
     8ca:	84ae                	mv	s1,a1
     8cc:	e609                	bnez	a2,8d6 <hydro_hash_update+0x14>
     8ce:	4501                	li	a0,0
     8d0:	0111                	addi	sp,sp,4
     8d2:	fd8ff06f          	j	aa <__riscv_restore_0>
     8d6:	03044783          	lbu	a5,48(s0)
     8da:	4741                	li	a4,16
     8dc:	8f1d                	sub	a4,a4,a5
     8de:	00e67363          	bgeu	a2,a4,8e4 <hydro_hash_update+0x22>
     8e2:	8732                	mv	a4,a2
     8e4:	4681                	li	a3,0
     8e6:	03044783          	lbu	a5,48(s0)
     8ea:	02d71563          	bne	a4,a3,914 <hydro_hash_update+0x52>
     8ee:	97ba                	add	a5,a5,a4
     8f0:	0ff7f793          	andi	a5,a5,255
     8f4:	94ba                	add	s1,s1,a4
     8f6:	8e19                	sub	a2,a2,a4
     8f8:	02f40823          	sb	a5,48(s0)
     8fc:	4741                	li	a4,16
     8fe:	fce797e3          	bne	a5,a4,8cc <hydro_hash_update+0xa>
     902:	4581                	li	a1,0
     904:	8522                	mv	a0,s0
     906:	c032                	sw	a2,0(sp)
     908:	91bff0ef          	jal	ra,222 <gimli_core_u8>
     90c:	4602                	lw	a2,0(sp)
     90e:	02040823          	sb	zero,48(s0)
     912:	bf6d                	j	8cc <hydro_hash_update+0xa>
     914:	97b6                	add	a5,a5,a3
     916:	97a2                	add	a5,a5,s0
     918:	00d485b3          	add	a1,s1,a3
     91c:	0005c583          	lbu	a1,0(a1)
     920:	0007c503          	lbu	a0,0(a5)
     924:	0685                	addi	a3,a3,1
     926:	8da9                	xor	a1,a1,a0
     928:	00b78023          	sb	a1,0(a5)
     92c:	bf6d                	j	8e6 <hydro_hash_update+0x24>

0000092e <hydro_hash_init>:
     92e:	f72ff2ef          	jal	t0,a0 <__riscv_save_0>
     932:	fbc10113          	addi	sp,sp,-68
     936:	c02e                	sw	a1,0(sp)
     938:	84b2                	mv	s1,a2
     93a:	4581                	li	a1,0
     93c:	03a00613          	li	a2,58
     940:	842a                	mv	s0,a0
     942:	00a10513          	addi	a0,sp,10
     946:	805ff0ef          	jal	ra,14a <memset>
     94a:	616d77b7          	lui	a5,0x616d7
     94e:	b0478793          	addi	a5,a5,-1276 # 616d6b04 <__global_pointer$+0x416d6264>
     952:	c23e                	sw	a5,4(sp)
     954:	6785                	lui	a5,0x1
     956:	86378793          	addi	a5,a5,-1949 # 863 <hydro_x25519_scalarmult+0x59>
     95a:	03200593          	li	a1,50
     95e:	01210513          	addi	a0,sp,18
     962:	00f11423          	sh	a5,8(sp)
     966:	8a9ff0ef          	jal	ra,20e <mem_zero>
     96a:	4702                	lw	a4,0(sp)
     96c:	4621                	li	a2,8
     96e:	00a10513          	addi	a0,sp,10
     972:	85ba                	mv	a1,a4
     974:	16a010ef          	jal	ra,1ade <memcpy>
     978:	cc8d                	beqz	s1,9b2 <hydro_hash_init+0x84>
     97a:	02000793          	li	a5,32
     97e:	02000613          	li	a2,32
     982:	85a6                	mv	a1,s1
     984:	01510513          	addi	a0,sp,21
     988:	00f10a23          	sb	a5,20(sp)
     98c:	152010ef          	jal	ra,1ade <memcpy>
     990:	04000613          	li	a2,64
     994:	8522                	mv	a0,s0
     996:	03400593          	li	a1,52
     99a:	c032                	sw	a2,0(sp)
     99c:	873ff0ef          	jal	ra,20e <mem_zero>
     9a0:	4602                	lw	a2,0(sp)
     9a2:	004c                	addi	a1,sp,4
     9a4:	8522                	mv	a0,s0
     9a6:	3f31                	jal	8c2 <hydro_hash_update>
     9a8:	4501                	li	a0,0
     9aa:	04410113          	addi	sp,sp,68
     9ae:	efcff06f          	j	aa <__riscv_restore_0>
     9b2:	00010a23          	sb	zero,20(sp)
     9b6:	02000613          	li	a2,32
     9ba:	bfe9                	j	994 <hydro_hash_init+0x66>

000009bc <hydro_hash_final>:
     9bc:	6741                	lui	a4,0x10
     9be:	ff060793          	addi	a5,a2,-16
     9c2:	173d                	addi	a4,a4,-17
     9c4:	08f76f63          	bltu	a4,a5,a62 <hydro_hash_final+0xa6>
     9c8:	ed8ff2ef          	jal	t0,a0 <__riscv_save_0>
     9cc:	1151                	addi	sp,sp,-12
     9ce:	87b2                	mv	a5,a2
     9d0:	00c104a3          	sb	a2,9(sp)
     9d4:	8221                	srli	a2,a2,0x8
     9d6:	00c10523          	sb	a2,10(sp)
     9da:	00c03633          	snez	a2,a2
     9de:	0605                	addi	a2,a2,1
     9e0:	84ae                	mv	s1,a1
     9e2:	00c10423          	sb	a2,8(sp)
     9e6:	002c                	addi	a1,sp,8
     9e8:	0609                	addi	a2,a2,2
     9ea:	842a                	mv	s0,a0
     9ec:	c03e                	sw	a5,0(sp)
     9ee:	000105a3          	sb	zero,11(sp)
     9f2:	3dc1                	jal	8c2 <hydro_hash_update>
     9f4:	03044703          	lbu	a4,48(s0)
     9f8:	4782                	lw	a5,0(sp)
     9fa:	9722                	add	a4,a4,s0
     9fc:	00074683          	lbu	a3,0(a4) # 10000 <_data_lma+0xcdd0>
     a00:	01f6c693          	xori	a3,a3,31
     a04:	00d70023          	sb	a3,0(a4)
     a08:	00f44703          	lbu	a4,15(s0)
     a0c:	f8074713          	xori	a4,a4,-128
     a10:	00e407a3          	sb	a4,15(s0)
     a14:	ff07f713          	andi	a4,a5,-16
     a18:	9726                	add	a4,a4,s1
     a1a:	4581                	li	a1,0
     a1c:	8522                	mv	a0,s0
     a1e:	c23e                	sw	a5,4(sp)
     a20:	c03a                	sw	a4,0(sp)
     a22:	801ff0ef          	jal	ra,222 <gimli_core_u8>
     a26:	8526                	mv	a0,s1
     a28:	4641                	li	a2,16
     a2a:	85a2                	mv	a1,s0
     a2c:	0b2010ef          	jal	ra,1ade <memcpy>
     a30:	4702                	lw	a4,0(sp)
     a32:	04c1                	addi	s1,s1,16
     a34:	4792                	lw	a5,4(sp)
     a36:	fee492e3          	bne	s1,a4,a1a <hydro_hash_final+0x5e>
     a3a:	00f7f613          	andi	a2,a5,15
     a3e:	ca19                	beqz	a2,a54 <hydro_hash_final+0x98>
     a40:	4581                	li	a1,0
     a42:	8522                	mv	a0,s0
     a44:	c032                	sw	a2,0(sp)
     a46:	fdcff0ef          	jal	ra,222 <gimli_core_u8>
     a4a:	4602                	lw	a2,0(sp)
     a4c:	85a2                	mv	a1,s0
     a4e:	8526                	mv	a0,s1
     a50:	fa2ff0ef          	jal	ra,1f2 <mem_cpy>
     a54:	47c1                	li	a5,16
     a56:	02f40823          	sb	a5,48(s0)
     a5a:	4501                	li	a0,0
     a5c:	0131                	addi	sp,sp,12
     a5e:	e4cff06f          	j	aa <__riscv_restore_0>
     a62:	557d                	li	a0,-1
     a64:	8082                	ret

00000a66 <hydro_random_ensure_initialized>:
     a66:	e3aff2ef          	jal	t0,a0 <__riscv_save_0>
     a6a:	82018793          	addi	a5,gp,-2016 # 200000c0 <hydro_random_context>
     a6e:	0387c783          	lbu	a5,56(a5)
     a72:	fbc10113          	addi	sp,sp,-68
     a76:	e3bd                	bnez	a5,adc <hydro_random_ensure_initialized+0x76>
     a78:	678d                	lui	a5,0x3
     a7a:	e3878793          	addi	a5,a5,-456 # 2e38 <_exit+0x4>
     a7e:	4398                	lw	a4,0(a5)
     a80:	43dc                	lw	a5,4(a5)
     a82:	4601                	li	a2,0
     a84:	002c                	addi	a1,sp,8
     a86:	0808                	addi	a0,sp,16
     a88:	c63e                	sw	a5,12(sp)
     a8a:	c43a                	sw	a4,8(sp)
     a8c:	354d                	jal	92e <hydro_hash_init>
     a8e:	82018493          	addi	s1,gp,-2016 # 200000c0 <hydro_random_context>
     a92:	47c1                	li	a5,16
     a94:	c03e                	sw	a5,0(sp)
     a96:	6a6000ef          	jal	ra,113c <RNG_GetCondensedEntropy>
     a9a:	c22a                	sw	a0,4(sp)
     a9c:	4611                	li	a2,4
     a9e:	004c                	addi	a1,sp,4
     aa0:	0808                	addi	a0,sp,16
     aa2:	3505                	jal	8c2 <hydro_hash_update>
     aa4:	4782                	lw	a5,0(sp)
     aa6:	17fd                	addi	a5,a5,-1
     aa8:	07c2                	slli	a5,a5,0x10
     aaa:	83c1                	srli	a5,a5,0x10
     aac:	f7e5                	bnez	a5,a94 <hydro_random_ensure_initialized+0x2e>
     aae:	03000613          	li	a2,48
     ab2:	82018593          	addi	a1,gp,-2016 # 200000c0 <hydro_random_context>
     ab6:	0808                	addi	a0,sp,16
     ab8:	3711                	jal	9bc <hydro_hash_final>
     aba:	409c                	lw	a5,0(s1)
     abc:	4581                	li	a1,0
     abe:	82018513          	addi	a0,gp,-2016 # 200000c0 <hydro_random_context>
     ac2:	fff7c793          	not	a5,a5
     ac6:	d89c                	sw	a5,48(s1)
     ac8:	40dc                	lw	a5,4(s1)
     aca:	fff7c793          	not	a5,a5
     ace:	d8dc                	sw	a5,52(s1)
     ad0:	f52ff0ef          	jal	ra,222 <gimli_core_u8>
     ad4:	3b4d                	jal	886 <hydro_random_ratchet>
     ad6:	4785                	li	a5,1
     ad8:	02f48c23          	sb	a5,56(s1)
     adc:	04410113          	addi	sp,sp,68
     ae0:	dcaff06f          	j	aa <__riscv_restore_0>

00000ae4 <hydro_random_buf>:
     ae4:	dbcff2ef          	jal	t0,a0 <__riscv_save_0>
     ae8:	1161                	addi	sp,sp,-8
     aea:	c02a                	sw	a0,0(sp)
     aec:	842e                	mv	s0,a1
     aee:	3fa5                	jal	a66 <hydro_random_ensure_initialized>
     af0:	4502                	lw	a0,0(sp)
     af2:	ff047713          	andi	a4,s0,-16
     af6:	87aa                	mv	a5,a0
     af8:	972a                	add	a4,a4,a0
     afa:	02e79563          	bne	a5,a4,b24 <hydro_random_buf+0x40>
     afe:	883d                	andi	s0,s0,15
     b00:	cc11                	beqz	s0,b1c <hydro_random_buf+0x38>
     b02:	4581                	li	a1,0
     b04:	82018513          	addi	a0,gp,-2016 # 200000c0 <hydro_random_context>
     b08:	c03e                	sw	a5,0(sp)
     b0a:	f18ff0ef          	jal	ra,222 <gimli_core_u8>
     b0e:	4782                	lw	a5,0(sp)
     b10:	8622                	mv	a2,s0
     b12:	82018593          	addi	a1,gp,-2016 # 200000c0 <hydro_random_context>
     b16:	853e                	mv	a0,a5
     b18:	edaff0ef          	jal	ra,1f2 <mem_cpy>
     b1c:	33ad                	jal	886 <hydro_random_ratchet>
     b1e:	0121                	addi	sp,sp,8
     b20:	d8aff06f          	j	aa <__riscv_restore_0>
     b24:	4581                	li	a1,0
     b26:	82018513          	addi	a0,gp,-2016 # 200000c0 <hydro_random_context>
     b2a:	c23a                	sw	a4,4(sp)
     b2c:	c03e                	sw	a5,0(sp)
     b2e:	ef4ff0ef          	jal	ra,222 <gimli_core_u8>
     b32:	4782                	lw	a5,0(sp)
     b34:	4641                	li	a2,16
     b36:	82018593          	addi	a1,gp,-2016 # 200000c0 <hydro_random_context>
     b3a:	853e                	mv	a0,a5
     b3c:	7a3000ef          	jal	ra,1ade <memcpy>
     b40:	01050793          	addi	a5,a0,16
     b44:	4712                	lw	a4,4(sp)
     b46:	bf55                	j	afa <hydro_random_buf+0x16>

00000b48 <hydro_init>:
     b48:	d58ff2ef          	jal	t0,a0 <__riscv_save_0>
     b4c:	3f29                	jal	a66 <hydro_random_ensure_initialized>
     b4e:	4501                	li	a0,0
     b50:	d5aff06f          	j	aa <__riscv_restore_0>

00000b54 <hydro_sign_challenge>:
     b54:	d4cff2ef          	jal	t0,a0 <__riscv_save_0>
     b58:	fc410113          	addi	sp,sp,-60
     b5c:	c22e                	sw	a1,4(sp)
     b5e:	658d                	lui	a1,0x3
     b60:	842a                	mv	s0,a0
     b62:	84b2                	mv	s1,a2
     b64:	ea458593          	addi	a1,a1,-348 # 2ea4 <zero>
     b68:	4601                	li	a2,0
     b6a:	0028                	addi	a0,sp,8
     b6c:	c036                	sw	a3,0(sp)
     b6e:	33c1                	jal	92e <hydro_hash_init>
     b70:	4792                	lw	a5,4(sp)
     b72:	02000613          	li	a2,32
     b76:	0028                	addi	a0,sp,8
     b78:	85be                	mv	a1,a5
     b7a:	33a1                	jal	8c2 <hydro_hash_update>
     b7c:	85a6                	mv	a1,s1
     b7e:	02000613          	li	a2,32
     b82:	0028                	addi	a0,sp,8
     b84:	3b3d                	jal	8c2 <hydro_hash_update>
     b86:	4682                	lw	a3,0(sp)
     b88:	04000613          	li	a2,64
     b8c:	0028                	addi	a0,sp,8
     b8e:	85b6                	mv	a1,a3
     b90:	3b0d                	jal	8c2 <hydro_hash_update>
     b92:	02000613          	li	a2,32
     b96:	85a2                	mv	a1,s0
     b98:	0028                	addi	a0,sp,8
     b9a:	350d                	jal	9bc <hydro_hash_final>
     b9c:	03c10113          	addi	sp,sp,60
     ba0:	d0aff06f          	j	aa <__riscv_restore_0>

00000ba4 <hydro_sign_keygen>:
     ba4:	cfcff2ef          	jal	t0,a0 <__riscv_save_0>
     ba8:	02050493          	addi	s1,a0,32
     bac:	842a                	mv	s0,a0
     bae:	02000593          	li	a1,32
     bb2:	8526                	mv	a0,s1
     bb4:	3f05                	jal	ae4 <hydro_random_buf>
     bb6:	85a6                	mv	a1,s1
     bb8:	8522                	mv	a0,s0
     bba:	3955                	jal	86e <hydro_x25519_scalarmult_base_uniform>
     bbc:	02000613          	li	a2,32
     bc0:	85a2                	mv	a1,s0
     bc2:	04040513          	addi	a0,s0,64
     bc6:	719000ef          	jal	ra,1ade <memcpy>
     bca:	ce0ff06f          	j	aa <__riscv_restore_0>

00000bce <hydro_sign_init>:
     bce:	cd2ff2ef          	jal	t0,a0 <__riscv_save_0>
     bd2:	4601                	li	a2,0
     bd4:	3ba9                	jal	92e <hydro_hash_init>
     bd6:	cd4ff06f          	j	aa <__riscv_restore_0>

00000bda <hydro_sign_final_create>:
     bda:	cc6ff2ef          	jal	t0,a0 <__riscv_save_0>
     bde:	f0810113          	addi	sp,sp,-248
     be2:	84ae                	mv	s1,a1
     be4:	c032                	sw	a2,0(sp)
     be6:	192c                	addi	a1,sp,184
     be8:	04000613          	li	a2,64
     bec:	3bc1                	jal	9bc <hydro_hash_final>
     bee:	02048413          	addi	s0,s1,32
     bf2:	8522                	mv	a0,s0
     bf4:	02000593          	li	a1,32
     bf8:	35f5                	jal	ae4 <hydro_random_buf>
     bfa:	4602                	lw	a2,0(sp)
     bfc:	658d                	lui	a1,0x3
     bfe:	ea458593          	addi	a1,a1,-348 # 2ea4 <zero>
     c02:	0148                	addi	a0,sp,132
     c04:	332d                	jal	92e <hydro_hash_init>
     c06:	85a2                	mv	a1,s0
     c08:	02000613          	li	a2,32
     c0c:	0148                	addi	a0,sp,132
     c0e:	3955                	jal	8c2 <hydro_hash_update>
     c10:	192c                	addi	a1,sp,184
     c12:	04000613          	li	a2,64
     c16:	0148                	addi	a0,sp,132
     c18:	316d                	jal	8c2 <hydro_hash_update>
     c1a:	02000613          	li	a2,32
     c1e:	85a2                	mv	a1,s0
     c20:	0148                	addi	a0,sp,132
     c22:	3b69                	jal	9bc <hydro_hash_final>
     c24:	85a2                	mv	a1,s0
     c26:	8526                	mv	a0,s1
     c28:	3199                	jal	86e <hydro_x25519_scalarmult_base_uniform>
     c2a:	4782                	lw	a5,0(sp)
     c2c:	1934                	addi	a3,sp,184
     c2e:	85a6                	mv	a1,s1
     c30:	02078613          	addi	a2,a5,32
     c34:	0048                	addi	a0,sp,4
     c36:	3f39                	jal	b54 <hydro_sign_challenge>
     c38:	85a2                	mv	a1,s0
     c3a:	1048                	addi	a0,sp,36
     c3c:	a31ff0ef          	jal	ra,66c <hydro_x25519_swapin>
     c40:	4582                	lw	a1,0(sp)
     c42:	00c8                	addi	a0,sp,68
     c44:	a29ff0ef          	jal	ra,66c <hydro_x25519_swapin>
     c48:	004c                	addi	a1,sp,4
     c4a:	10c8                	addi	a0,sp,100
     c4c:	a21ff0ef          	jal	ra,66c <hydro_x25519_swapin>
     c50:	10d0                	addi	a2,sp,100
     c52:	00cc                	addi	a1,sp,68
     c54:	1048                	addi	a0,sp,36
     c56:	895ff0ef          	jal	ra,4ea <hydro_x25519_sc_montmul>
     c5a:	00c8                	addi	a0,sp,68
     c5c:	02000593          	li	a1,32
     c60:	daeff0ef          	jal	ra,20e <mem_zero>
     c64:	660d                	lui	a2,0x3
     c66:	e8460613          	addi	a2,a2,-380 # 2e84 <hydro_x25519_sc_r2>
     c6a:	104c                	addi	a1,sp,36
     c6c:	00c8                	addi	a0,sp,68
     c6e:	87dff0ef          	jal	ra,4ea <hydro_x25519_sc_montmul>
     c72:	00cc                	addi	a1,sp,68
     c74:	8522                	mv	a0,s0
     c76:	a05ff0ef          	jal	ra,67a <hydro_x25519_swapout>
     c7a:	4501                	li	a0,0
     c7c:	0f810113          	addi	sp,sp,248
     c80:	c2aff06f          	j	aa <__riscv_restore_0>

00000c84 <hydro_sign_final_verify>:
     c84:	c1cff2ef          	jal	t0,a0 <__riscv_save_0>
     c88:	e9c10113          	addi	sp,sp,-356
     c8c:	842e                	mv	s0,a1
     c8e:	84b2                	mv	s1,a2
     c90:	00cc                	addi	a1,sp,68
     c92:	04000613          	li	a2,64
     c96:	331d                	jal	9bc <hydro_hash_final>
     c98:	00d4                	addi	a3,sp,68
     c9a:	8626                	mv	a2,s1
     c9c:	85a2                	mv	a1,s0
     c9e:	0048                	addi	a0,sp,4
     ca0:	3d55                	jal	b54 <hydro_sign_challenge>
     ca2:	8626                	mv	a2,s1
     ca4:	004c                	addi	a1,sp,4
     ca6:	0148                	addi	a0,sp,132
     ca8:	4681                	li	a3,0
     caa:	a71ff0ef          	jal	ra,71a <hydro_x25519_core>
     cae:	660d                	lui	a2,0x3
     cb0:	4681                	li	a3,0
     cb2:	e4060613          	addi	a2,a2,-448 # 2e40 <hydro_x25519_BASE_POINT>
     cb6:	02040593          	addi	a1,s0,32
     cba:	01c8                	addi	a0,sp,196
     cbc:	a5fff0ef          	jal	ra,71a <hydro_x25519_core>
     cc0:	47c1                	li	a5,16
     cc2:	85a2                	mv	a1,s0
     cc4:	1048                	addi	a0,sp,36
     cc6:	c03e                	sw	a5,0(sp)
     cc8:	9a5ff0ef          	jal	ra,66c <hydro_x25519_swapin>
     ccc:	04000613          	li	a2,64
     cd0:	014c                	addi	a1,sp,132
     cd2:	0248                	addi	a0,sp,260
     cd4:	60b000ef          	jal	ra,1ade <memcpy>
     cd8:	01c8                	addi	a0,sp,196
     cda:	9afff0ef          	jal	ra,688 <hydro_x25519_ladder_part1>
     cde:	014c                	addi	a1,sp,132
     ce0:	11c8                	addi	a0,sp,228
     ce2:	f8aff0ef          	jal	ra,46c <hydro_x25519_mul1>
     ce6:	114c                	addi	a1,sp,164
     ce8:	11c8                	addi	a0,sp,228
     cea:	f82ff0ef          	jal	ra,46c <hydro_x25519_mul1>
     cee:	104c                	addi	a1,sp,36
     cf0:	11c8                	addi	a0,sp,228
     cf2:	f7aff0ef          	jal	ra,46c <hydro_x25519_mul1>
     cf6:	11cc                	addi	a1,sp,228
     cf8:	4685                	li	a3,1
     cfa:	860a                	mv	a2,sp
     cfc:	852e                	mv	a0,a1
     cfe:	e8eff0ef          	jal	ra,38c <hydro_x25519_mul>
     d02:	104c                	addi	a1,sp,36
     d04:	1248                	addi	a0,sp,292
     d06:	f66ff0ef          	jal	ra,46c <hydro_x25519_mul1>
     d0a:	124c                	addi	a1,sp,292
     d0c:	0250                	addi	a2,sp,260
     d0e:	852e                	mv	a0,a1
     d10:	e30ff0ef          	jal	ra,340 <hydro_x25519_sub>
     d14:	124c                	addi	a1,sp,292
     d16:	852e                	mv	a0,a1
     d18:	f54ff0ef          	jal	ra,46c <hydro_x25519_mul1>
     d1c:	124c                	addi	a1,sp,292
     d1e:	11d0                	addi	a2,sp,228
     d20:	852e                	mv	a0,a1
     d22:	e1eff0ef          	jal	ra,340 <hydro_x25519_sub>
     d26:	11c8                	addi	a0,sp,228
     d28:	f76ff0ef          	jal	ra,49e <hydro_x25519_canon>
     d2c:	842a                	mv	s0,a0
     d2e:	1248                	addi	a0,sp,292
     d30:	f6eff0ef          	jal	ra,49e <hydro_x25519_canon>
     d34:	fff54513          	not	a0,a0
     d38:	8d41                	or	a0,a0,s0
     d3a:	16410113          	addi	sp,sp,356
     d3e:	b6cff06f          	j	aa <__riscv_restore_0>

00000d42 <hydro_sign_create>:
     d42:	b5eff2ef          	jal	t0,a0 <__riscv_save_0>
     d46:	fc410113          	addi	sp,sp,-60
     d4a:	c22e                	sw	a1,4(sp)
     d4c:	842a                	mv	s0,a0
     d4e:	85b6                	mv	a1,a3
     d50:	0028                	addi	a0,sp,8
     d52:	c032                	sw	a2,0(sp)
     d54:	84ba                	mv	s1,a4
     d56:	3da5                	jal	bce <hydro_sign_init>
     d58:	4602                	lw	a2,0(sp)
     d5a:	4792                	lw	a5,4(sp)
     d5c:	c511                	beqz	a0,d68 <hydro_sign_create+0x26>
     d5e:	557d                	li	a0,-1
     d60:	03c10113          	addi	sp,sp,60
     d64:	b46ff06f          	j	aa <__riscv_restore_0>
     d68:	85be                	mv	a1,a5
     d6a:	0028                	addi	a0,sp,8
     d6c:	3e99                	jal	8c2 <hydro_hash_update>
     d6e:	f965                	bnez	a0,d5e <hydro_sign_create+0x1c>
     d70:	8626                	mv	a2,s1
     d72:	85a2                	mv	a1,s0
     d74:	0028                	addi	a0,sp,8
     d76:	3595                	jal	bda <hydro_sign_final_create>
     d78:	00a03533          	snez	a0,a0
     d7c:	40a00533          	neg	a0,a0
     d80:	b7c5                	j	d60 <hydro_sign_create+0x1e>

00000d82 <hydro_sign_verify>:
     d82:	b1eff2ef          	jal	t0,a0 <__riscv_save_0>
     d86:	fc410113          	addi	sp,sp,-60
     d8a:	c22e                	sw	a1,4(sp)
     d8c:	842a                	mv	s0,a0
     d8e:	85b6                	mv	a1,a3
     d90:	0028                	addi	a0,sp,8
     d92:	c032                	sw	a2,0(sp)
     d94:	84ba                	mv	s1,a4
     d96:	3d25                	jal	bce <hydro_sign_init>
     d98:	4602                	lw	a2,0(sp)
     d9a:	4792                	lw	a5,4(sp)
     d9c:	c511                	beqz	a0,da8 <hydro_sign_verify+0x26>
     d9e:	557d                	li	a0,-1
     da0:	03c10113          	addi	sp,sp,60
     da4:	b06ff06f          	j	aa <__riscv_restore_0>
     da8:	85be                	mv	a1,a5
     daa:	0028                	addi	a0,sp,8
     dac:	b17ff0ef          	jal	ra,8c2 <hydro_hash_update>
     db0:	f57d                	bnez	a0,d9e <hydro_sign_verify+0x1c>
     db2:	8626                	mv	a2,s1
     db4:	85a2                	mv	a1,s0
     db6:	0028                	addi	a0,sp,8
     db8:	35f1                	jal	c84 <hydro_sign_final_verify>
     dba:	00a03533          	snez	a0,a0
     dbe:	40a00533          	neg	a0,a0
     dc2:	bff9                	j	da0 <hydro_sign_verify+0x1e>

00000dc4 <NMI_Handler>:
     dc4:	30200073          	mret

00000dc8 <HardFault_Handler>:
     dc8:	a001                	j	dc8 <HardFault_Handler>

00000dca <SysTick_Handler>:
     dca:	e000f7b7          	lui	a5,0xe000f
     dce:	43d8                	lw	a4,4(a5)
     dd0:	9b79                	andi	a4,a4,-2
     dd2:	c3d8                	sw	a4,4(a5)
     dd4:	4398                	lw	a4,0(a5)
     dd6:	00176713          	ori	a4,a4,1
     dda:	c398                	sw	a4,0(a5)
     ddc:	8601a783          	lw	a5,-1952(gp) # 20000100 <uptime_ms>
     de0:	0785                	addi	a5,a5,1
     de2:	86f1a023          	sw	a5,-1952(gp) # 20000100 <uptime_ms>
     de6:	30200073          	mret

00000dea <printHex>:
     dea:	ab6ff2ef          	jal	t0,a0 <__riscv_save_0>
     dee:	84ae                	mv	s1,a1
     df0:	00054583          	lbu	a1,0(a0)
     df4:	842a                	mv	s0,a0
     df6:	00003537          	lui	a0,0x3
     dfa:	1171                	addi	sp,sp,-4
     dfc:	17850513          	addi	a0,a0,376 # 3178 <zero+0x2d4>
     e00:	5b7000ef          	jal	ra,1bb6 <iprintf>
     e04:	4785                	li	a5,1
     e06:	fff48713          	addi	a4,s1,-1
     e0a:	000036b7          	lui	a3,0x3
     e0e:	00e7eb63          	bltu	a5,a4,e24 <printHex+0x3a>
     e12:	00003537          	lui	a0,0x3
     e16:	12c50513          	addi	a0,a0,300 # 312c <zero+0x288>
     e1a:	59d000ef          	jal	ra,1bb6 <iprintf>
     e1e:	0111                	addi	sp,sp,4
     e20:	a8aff06f          	j	aa <__riscv_restore_0>
     e24:	00f40733          	add	a4,s0,a5
     e28:	00074583          	lbu	a1,0(a4)
     e2c:	18c68513          	addi	a0,a3,396 # 318c <zero+0x2e8>
     e30:	c03e                	sw	a5,0(sp)
     e32:	585000ef          	jal	ra,1bb6 <iprintf>
     e36:	4782                	lw	a5,0(sp)
     e38:	0785                	addi	a5,a5,1
     e3a:	b7f1                	j	e06 <printHex+0x1c>

00000e3c <SYSTEM_CFG>:
     e3c:	a64ff2ef          	jal	t0,a0 <__riscv_save_0>
     e40:	2479                	jal	10ce <SystemCoreClockUpdate>
     e42:	4505                	li	a0,1
     e44:	0c1000ef          	jal	ra,1704 <RCC_LSICmd>
     e48:	4585                	li	a1,1
     e4a:	10000537          	lui	a0,0x10000
     e4e:	189000ef          	jal	ra,17d6 <RCC_APB1PeriphClockCmd>
     e52:	4501                	li	a0,0
     e54:	089000ef          	jal	ra,16dc <RCC_PLLConfig>
     e58:	309000ef          	jal	ra,1960 <SysTimer>
     e5c:	6705                	lui	a4,0x1
     e5e:	e000e7b7          	lui	a5,0xe000e
     e62:	0008d537          	lui	a0,0x8d
     e66:	10e7a023          	sw	a4,256(a5) # e000e100 <__global_pointer$+0xc000d860>
     e6a:	a0050513          	addi	a0,a0,-1536 # 8ca00 <_data_lma+0x897d0>
     e6e:	329000ef          	jal	ra,1996 <USART_Printf_Init>
     e72:	00003537          	lui	a0,0x3
     e76:	ee450513          	addi	a0,a0,-284 # 2ee4 <zero+0x40>
     e7a:	53d000ef          	jal	ra,1bb6 <iprintf>
     e7e:	00003537          	lui	a0,0x3
     e82:	eec50513          	addi	a0,a0,-276 # 2eec <zero+0x48>
     e86:	531000ef          	jal	ra,1bb6 <iprintf>
     e8a:	00003537          	lui	a0,0x3
     e8e:	ef050513          	addi	a0,a0,-272 # 2ef0 <zero+0x4c>
     e92:	525000ef          	jal	ra,1bb6 <iprintf>
     e96:	20000437          	lui	s0,0x20000
     e9a:	01042583          	lw	a1,16(s0) # 20000010 <SystemCoreClock>
     e9e:	00003537          	lui	a0,0x3
     ea2:	ef850513          	addi	a0,a0,-264 # 2ef8 <zero+0x54>
     ea6:	511000ef          	jal	ra,1bb6 <iprintf>
     eaa:	01042583          	lw	a1,16(s0)
     eae:	00003537          	lui	a0,0x3
     eb2:	f1c50513          	addi	a0,a0,-228 # 2f1c <zero+0x78>
     eb6:	501000ef          	jal	ra,1bb6 <iprintf>
     eba:	1ffff7b7          	lui	a5,0x1ffff
     ebe:	7e07d583          	lhu	a1,2016(a5) # 1ffff7e0 <_data_lma+0x1fffc5b0>
     ec2:	00003537          	lui	a0,0x3
     ec6:	f4050513          	addi	a0,a0,-192 # 2f40 <zero+0x9c>
     eca:	4ed000ef          	jal	ra,1bb6 <iprintf>
     ece:	393000ef          	jal	ra,1a60 <__get_MISA>
     ed2:	85aa                	mv	a1,a0
     ed4:	00003537          	lui	a0,0x3
     ed8:	f6450513          	addi	a0,a0,-156 # 2f64 <zero+0xc0>
     edc:	4db000ef          	jal	ra,1bb6 <iprintf>
     ee0:	4509                	li	a0,2
     ee2:	7f4000ef          	jal	ra,16d6 <NVIC_PriorityGroupConfig>
     ee6:	9c4ff06f          	j	aa <__riscv_restore_0>

00000eea <main>:
     eea:	9b6ff2ef          	jal	t0,a0 <__riscv_save_0>
     eee:	f5c10113          	addi	sp,sp,-164
     ef2:	37a9                	jal	e3c <SYSTEM_CFG>
     ef4:	2cb9                	jal	1152 <ADC1_CFG>
     ef6:	2631                	jal	1202 <ADC1_launch>
     ef8:	3981                	jal	b48 <hydro_init>
     efa:	000037b7          	lui	a5,0x3
     efe:	f8c78513          	addi	a0,a5,-116 # 2f8c <zero+0xe8>
     f02:	4b5000ef          	jal	ra,1bb6 <iprintf>
     f06:	86018413          	addi	s0,gp,-1952 # 20000100 <uptime_ms>
     f0a:	00c8                	addi	a0,sp,68
     f0c:	4004                	lw	s1,0(s0)
     f0e:	3959                	jal	ba4 <hydro_sign_keygen>
     f10:	400c                	lw	a1,0(s0)
     f12:	00003537          	lui	a0,0x3
     f16:	fa850513          	addi	a0,a0,-88 # 2fa8 <zero+0x104>
     f1a:	8d85                	sub	a1,a1,s1
     f1c:	49b000ef          	jal	ra,1bb6 <iprintf>
     f20:	00003537          	lui	a0,0x3
     f24:	fc850513          	addi	a0,a0,-56 # 2fc8 <zero+0x124>
     f28:	48f000ef          	jal	ra,1bb6 <iprintf>
     f2c:	000034b7          	lui	s1,0x3
     f30:	00003537          	lui	a0,0x3
     f34:	00048593          	mv	a1,s1
     f38:	02450513          	addi	a0,a0,36 # 3024 <zero+0x180>
     f3c:	47b000ef          	jal	ra,1bb6 <iprintf>
     f40:	00042303          	lw	t1,0(s0)
     f44:	000033b7          	lui	t2,0x3
     f48:	03c38693          	addi	a3,t2,60 # 303c <zero+0x198>
     f4c:	10d8                	addi	a4,sp,100
     f4e:	02200613          	li	a2,34
     f52:	00048593          	mv	a1,s1
     f56:	0048                	addi	a0,sp,4
     f58:	c01a                	sw	t1,0(sp)
     f5a:	33e5                	jal	d42 <hydro_sign_create>
     f5c:	4302                	lw	t1,0(sp)
     f5e:	400c                	lw	a1,0(s0)
     f60:	00003537          	lui	a0,0x3
     f64:	04450513          	addi	a0,a0,68 # 3044 <zero+0x1a0>
     f68:	406585b3          	sub	a1,a1,t1
     f6c:	44b000ef          	jal	ra,1bb6 <iprintf>
     f70:	00003537          	lui	a0,0x3
     f74:	05c50513          	addi	a0,a0,92 # 305c <zero+0x1b8>
     f78:	43f000ef          	jal	ra,1bb6 <iprintf>
     f7c:	00042303          	lw	t1,0(s0)
     f80:	000033b7          	lui	t2,0x3
     f84:	00d8                	addi	a4,sp,68
     f86:	00048593          	mv	a1,s1
     f8a:	03c38693          	addi	a3,t2,60 # 303c <zero+0x198>
     f8e:	02200613          	li	a2,34
     f92:	0048                	addi	a0,sp,4
     f94:	c01a                	sw	t1,0(sp)
     f96:	33f5                	jal	d82 <hydro_sign_verify>
     f98:	86018493          	addi	s1,gp,-1952 # 20000100 <uptime_ms>
     f9c:	4302                	lw	t1,0(sp)
     f9e:	4098                	lw	a4,0(s1)
     fa0:	00003437          	lui	s0,0x3
     fa4:	40670733          	sub	a4,a4,t1
     fa8:	c03a                	sw	a4,0(sp)
     faa:	c129                	beqz	a0,fec <main+0x102>
     fac:	00003537          	lui	a0,0x3
     fb0:	09450513          	addi	a0,a0,148 # 3094 <zero+0x1f0>
     fb4:	403000ef          	jal	ra,1bb6 <iprintf>
     fb8:	0cc40513          	addi	a0,s0,204 # 30cc <zero+0x228>
     fbc:	3fb000ef          	jal	ra,1bb6 <iprintf>
     fc0:	04000593          	li	a1,64
     fc4:	0048                	addi	a0,sp,4
     fc6:	3515                	jal	dea <printHex>
     fc8:	4702                	lw	a4,0(sp)
     fca:	00003537          	lui	a0,0x3
     fce:	0dc50513          	addi	a0,a0,220 # 30dc <zero+0x238>
     fd2:	85ba                	mv	a1,a4
     fd4:	3e3000ef          	jal	ra,1bb6 <iprintf>
     fd8:	4098                	lw	a4,0(s1)
     fda:	6689                	lui	a3,0x2
     fdc:	71068693          	addi	a3,a3,1808 # 2710 <__sread+0x2c>
     fe0:	9736                	add	a4,a4,a3
     fe2:	4094                	lw	a3,0(s1)
     fe4:	f0e6fbe3          	bgeu	a3,a4,efa <main+0x10>
     fe8:	0001                	nop
     fea:	bfe5                	j	fe2 <main+0xf8>
     fec:	00003537          	lui	a0,0x3
     ff0:	0f850513          	addi	a0,a0,248 # 30f8 <zero+0x254>
     ff4:	3c3000ef          	jal	ra,1bb6 <iprintf>
     ff8:	00003537          	lui	a0,0x3
     ffc:	13450513          	addi	a0,a0,308 # 3134 <zero+0x290>
    1000:	3b7000ef          	jal	ra,1bb6 <iprintf>
    1004:	02000593          	li	a1,32
    1008:	00c8                	addi	a0,sp,68
    100a:	33c5                	jal	dea <printHex>
    100c:	00003537          	lui	a0,0x3
    1010:	14850513          	addi	a0,a0,328 # 3148 <zero+0x2a4>
    1014:	3a3000ef          	jal	ra,1bb6 <iprintf>
    1018:	04000593          	li	a1,64
    101c:	10c8                	addi	a0,sp,100
    101e:	33f1                	jal	dea <printHex>
    1020:	0cc40513          	addi	a0,s0,204
    1024:	393000ef          	jal	ra,1bb6 <iprintf>
    1028:	04000593          	li	a1,64
    102c:	0048                	addi	a0,sp,4
    102e:	3b75                	jal	dea <printHex>
    1030:	4702                	lw	a4,0(sp)
    1032:	00003537          	lui	a0,0x3
    1036:	15c50513          	addi	a0,a0,348 # 315c <zero+0x2b8>
    103a:	85ba                	mv	a1,a4
    103c:	bf61                	j	fd4 <main+0xea>

0000103e <SystemInit>:
    103e:	400217b7          	lui	a5,0x40021
    1042:	4398                	lw	a4,0(a5)
    1044:	fcff06b7          	lui	a3,0xfcff0
    1048:	00176713          	ori	a4,a4,1
    104c:	c398                	sw	a4,0(a5)
    104e:	43d8                	lw	a4,4(a5)
    1050:	8f75                	and	a4,a4,a3
    1052:	c3d8                	sw	a4,4(a5)
    1054:	4398                	lw	a4,0(a5)
    1056:	fef706b7          	lui	a3,0xfef70
    105a:	16fd                	addi	a3,a3,-1
    105c:	8f75                	and	a4,a4,a3
    105e:	c398                	sw	a4,0(a5)
    1060:	4398                	lw	a4,0(a5)
    1062:	fffc06b7          	lui	a3,0xfffc0
    1066:	16fd                	addi	a3,a3,-1
    1068:	8f75                	and	a4,a4,a3
    106a:	c398                	sw	a4,0(a5)
    106c:	43d4                	lw	a3,4(a5)
    106e:	7741                	lui	a4,0xffff0
    1070:	177d                	addi	a4,a4,-1
    1072:	8ef9                	and	a3,a3,a4
    1074:	c3d4                	sw	a3,4(a5)
    1076:	009f06b7          	lui	a3,0x9f0
    107a:	c794                	sw	a3,8(a5)
    107c:	400226b7          	lui	a3,0x40022
    1080:	4290                	lw	a2,0(a3)
    1082:	9a71                	andi	a2,a2,-4
    1084:	c290                	sw	a2,0(a3)
    1086:	4290                	lw	a2,0(a3)
    1088:	00166613          	ori	a2,a2,1
    108c:	c290                	sw	a2,0(a3)
    108e:	43d4                	lw	a3,4(a5)
    1090:	c3d4                	sw	a3,4(a5)
    1092:	43d4                	lw	a3,4(a5)
    1094:	8f75                	and	a4,a4,a3
    1096:	c3d8                	sw	a4,4(a5)
    1098:	43d8                	lw	a4,4(a5)
    109a:	010006b7          	lui	a3,0x1000
    109e:	c3d8                	sw	a4,4(a5)
    10a0:	4398                	lw	a4,0(a5)
    10a2:	8f55                	or	a4,a4,a3
    10a4:	c398                	sw	a4,0(a5)
    10a6:	4398                	lw	a4,0(a5)
    10a8:	00671693          	slli	a3,a4,0x6
    10ac:	fe06dde3          	bgez	a3,10a6 <SystemInit+0x68>
    10b0:	43d8                	lw	a4,4(a5)
    10b2:	400216b7          	lui	a3,0x40021
    10b6:	9b71                	andi	a4,a4,-4
    10b8:	c3d8                	sw	a4,4(a5)
    10ba:	43d8                	lw	a4,4(a5)
    10bc:	00276713          	ori	a4,a4,2
    10c0:	c3d8                	sw	a4,4(a5)
    10c2:	4721                	li	a4,8
    10c4:	42dc                	lw	a5,4(a3)
    10c6:	8bb1                	andi	a5,a5,12
    10c8:	fee79ee3          	bne	a5,a4,10c4 <SystemInit+0x86>
    10cc:	8082                	ret

000010ce <SystemCoreClockUpdate>:
    10ce:	fd3fe2ef          	jal	t0,a0 <__riscv_save_0>
    10d2:	40021737          	lui	a4,0x40021
    10d6:	435c                	lw	a5,4(a4)
    10d8:	20000437          	lui	s0,0x20000
    10dc:	4691                	li	a3,4
    10de:	8bb1                	andi	a5,a5,12
    10e0:	01040413          	addi	s0,s0,16 # 20000010 <SystemCoreClock>
    10e4:	00d78563          	beq	a5,a3,10ee <SystemCoreClockUpdate+0x20>
    10e8:	46a1                	li	a3,8
    10ea:	04d78363          	beq	a5,a3,1130 <SystemCoreClockUpdate+0x62>
    10ee:	016e37b7          	lui	a5,0x16e3
    10f2:	60078793          	addi	a5,a5,1536 # 16e3600 <_data_lma+0x16e03d0>
    10f6:	c01c                	sw	a5,0(s0)
    10f8:	400216b7          	lui	a3,0x40021
    10fc:	42dc                	lw	a5,4(a3)
    10fe:	4008                	lw	a0,0(s0)
    1100:	8391                	srli	a5,a5,0x4
    1102:	00f7f713          	andi	a4,a5,15
    1106:	200007b7          	lui	a5,0x20000
    110a:	00078793          	mv	a5,a5
    110e:	97ba                	add	a5,a5,a4
    1110:	0007c583          	lbu	a1,0(a5) # 20000000 <_data_vma>
    1114:	42dc                	lw	a5,4(a3)
    1116:	0ff5f593          	andi	a1,a1,255
    111a:	0807f793          	andi	a5,a5,128
    111e:	00b55733          	srl	a4,a0,a1
    1122:	e781                	bnez	a5,112a <SystemCoreClockUpdate+0x5c>
    1124:	fb1fe0ef          	jal	ra,d4 <__udivsi3>
    1128:	872a                	mv	a4,a0
    112a:	c018                	sw	a4,0(s0)
    112c:	f7ffe06f          	j	aa <__riscv_restore_0>
    1130:	435c                	lw	a5,4(a4)
    1132:	02dc77b7          	lui	a5,0x2dc7
    1136:	c0078793          	addi	a5,a5,-1024 # 2dc6c00 <_data_lma+0x2dc39d0>
    113a:	bf75                	j	10f6 <SystemCoreClockUpdate+0x28>

0000113c <RNG_GetCondensedEntropy>:
    113c:	88018793          	addi	a5,gp,-1920 # 20000120 <extract_RDY>
    1140:	4398                	lw	a4,0(a5)
    1142:	c711                	beqz	a4,114e <RNG_GetCondensedEntropy+0x12>
    1144:	0007a023          	sw	zero,0(a5)
    1148:	87c1a503          	lw	a0,-1924(gp) # 2000011c <extract>
    114c:	8082                	ret
    114e:	0001                	nop
    1150:	b7f5                	j	113c <RNG_GetCondensedEntropy>

00001152 <ADC1_CFG>:
    1152:	f4ffe2ef          	jal	t0,a0 <__riscv_save_0>
    1156:	1121                	addi	sp,sp,-24
    1158:	4585                	li	a1,1
    115a:	20000513          	li	a0,512
    115e:	2da9                	jal	17b8 <RCC_APB2PeriphClockCmd>
    1160:	6511                	lui	a0,0x4
    1162:	2379                	jal	16f0 <RCC_ADCCLKConfig>
    1164:	40012437          	lui	s0,0x40012
    1168:	40040513          	addi	a0,s0,1024 # 40012400 <__global_pointer$+0x20011b60>
    116c:	2601                	jal	146c <ADC_DeInit>
    116e:	4661                	li	a2,24
    1170:	4581                	li	a1,0
    1172:	850a                	mv	a0,sp
    1174:	fd7fe0ef          	jal	ra,14a <memset>
    1178:	000e07b7          	lui	a5,0xe0
    117c:	c63e                	sw	a5,12(sp)
    117e:	6785                	lui	a5,0x1
    1180:	80078793          	addi	a5,a5,-2048 # 800 <hydro_x25519_core+0xe6>
    1184:	c83e                	sw	a5,16(sp)
    1186:	858a                	mv	a1,sp
    1188:	4785                	li	a5,1
    118a:	40040513          	addi	a0,s0,1024
    118e:	00f10a23          	sb	a5,20(sp)
    1192:	2601                	jal	1492 <ADC_Init>
    1194:	4585                	li	a1,1
    1196:	40040513          	addi	a0,s0,1024
    119a:	26a1                	jal	14e2 <ADC_Cmd>
    119c:	6795                	lui	a5,0x5
    119e:	b0078793          	addi	a5,a5,-1280 # 4b00 <_data_lma+0x18d0>
    11a2:	0001                	nop
    11a4:	17fd                	addi	a5,a5,-1
    11a6:	fff5                	bnez	a5,11a2 <ADC1_CFG+0x50>
    11a8:	40012537          	lui	a0,0x40012
    11ac:	40050513          	addi	a0,a0,1024 # 40012400 <__global_pointer$+0x20011b60>
    11b0:	40012437          	lui	s0,0x40012
    11b4:	2e91                	jal	1508 <ADC_ResetCalibration>
    11b6:	40040493          	addi	s1,s0,1024 # 40012400 <__global_pointer$+0x20011b60>
    11ba:	8526                	mv	a0,s1
    11bc:	2e99                	jal	1512 <ADC_GetResetCalibrationStatus>
    11be:	fd75                	bnez	a0,11ba <ADC1_CFG+0x68>
    11c0:	40040513          	addi	a0,s0,1024
    11c4:	40012437          	lui	s0,0x40012
    11c8:	2e89                	jal	151a <ADC_StartCalibration>
    11ca:	40040413          	addi	s0,s0,1024 # 40012400 <__global_pointer$+0x20011b60>
    11ce:	8522                	mv	a0,s0
    11d0:	2e91                	jal	1524 <ADC_GetCalibrationStatus>
    11d2:	fd75                	bnez	a0,11ce <ADC1_CFG+0x7c>
    11d4:	6795                	lui	a5,0x5
    11d6:	b0078793          	addi	a5,a5,-1280 # 4b00 <_data_lma+0x18d0>
    11da:	0001                	nop
    11dc:	17fd                	addi	a5,a5,-1
    11de:	fff5                	bnez	a5,11da <ADC1_CFG+0x88>
    11e0:	40012537          	lui	a0,0x40012
    11e4:	4605                	li	a2,1
    11e6:	22000593          	li	a1,544
    11ea:	40050513          	addi	a0,a0,1024 # 40012400 <__global_pointer$+0x20011b60>
    11ee:	2611                	jal	14f2 <ADC_ITConfig>
    11f0:	e000e7b7          	lui	a5,0xe000e
    11f4:	20000737          	lui	a4,0x20000
    11f8:	10e7a023          	sw	a4,256(a5) # e000e100 <__global_pointer$+0xc000d860>
    11fc:	0161                	addi	sp,sp,24
    11fe:	eadfe06f          	j	aa <__riscv_restore_0>

00001202 <ADC1_launch>:
    1202:	e9ffe2ef          	jal	t0,a0 <__riscv_save_0>
    1206:	200007b7          	lui	a5,0x20000
    120a:	0147c583          	lbu	a1,20(a5) # 20000014 <current_channel>
    120e:	40012437          	lui	s0,0x40012
    1212:	4691                	li	a3,4
    1214:	4605                	li	a2,1
    1216:	40040513          	addi	a0,s0,1024 # 40012400 <__global_pointer$+0x20011b60>
    121a:	262d                	jal	1544 <ADC_RegularChannelConfig>
    121c:	4585                	li	a1,1
    121e:	40040513          	addi	a0,s0,1024
    1222:	2629                	jal	152c <ADC_SoftwareStartConvCmd>
    1224:	e87fe06f          	j	aa <__riscv_restore_0>

00001228 <ADC1_IRQHandler>:
    1228:	7179                	addi	sp,sp,-48
    122a:	c636                	sw	a3,12(sp)
    122c:	200006b7          	lui	a3,0x20000
    1230:	c43a                	sw	a4,8(sp)
    1232:	0146c703          	lbu	a4,20(a3) # 20000014 <current_channel>
    1236:	ca2e                	sw	a1,20(sp)
    1238:	c23e                	sw	a5,4(sp)
    123a:	d616                	sw	t0,44(sp)
    123c:	400127b7          	lui	a5,0x40012
    1240:	d41a                	sw	t1,40(sp)
    1242:	d21e                	sw	t2,36(sp)
    1244:	d022                	sw	s0,32(sp)
    1246:	ce26                	sw	s1,28(sp)
    1248:	cc2a                	sw	a0,24(sp)
    124a:	c832                	sw	a2,16(sp)
    124c:	4591                	li	a1,4
    124e:	01468693          	addi	a3,a3,20
    1252:	40078793          	addi	a5,a5,1024 # 40012400 <__global_pointer$+0x20011b60>
    1256:	14b70a63          	beq	a4,a1,13aa <ADC1_IRQHandler+0x182>
    125a:	4621                	li	a2,8
    125c:	06c70b63          	beq	a4,a2,12d2 <ADC1_IRQHandler+0xaa>
    1260:	450d                	li	a0,3
    1262:	14a71963          	bne	a4,a0,13b4 <ADC1_IRQHandler+0x18c>
    1266:	47f8                	lw	a4,76(a5)
    1268:	00b68023          	sb	a1,0(a3)
    126c:	86e19223          	sh	a4,-1948(gp) # 20000104 <ADC_Channel_3_value>
    1270:	0006c683          	lbu	a3,0(a3)
    1274:	400127b7          	lui	a5,0x40012
    1278:	4107a503          	lw	a0,1040(a5) # 40012410 <__global_pointer$+0x20011b70>
    127c:	00169613          	slli	a2,a3,0x1
    1280:	00d605b3          	add	a1,a2,a3
    1284:	471d                	li	a4,7
    1286:	00b71733          	sll	a4,a4,a1
    128a:	fff74713          	not	a4,a4
    128e:	4611                	li	a2,4
    1290:	00b61633          	sll	a2,a2,a1
    1294:	8f69                	and	a4,a4,a0
    1296:	8f51                	or	a4,a4,a2
    1298:	40e7a823          	sw	a4,1040(a5)
    129c:	4347a703          	lw	a4,1076(a5)
    12a0:	5402                	lw	s0,32(sp)
    12a2:	52b2                	lw	t0,44(sp)
    12a4:	9b01                	andi	a4,a4,-32
    12a6:	8ed9                	or	a3,a3,a4
    12a8:	42d7aa23          	sw	a3,1076(a5)
    12ac:	4087a703          	lw	a4,1032(a5)
    12b0:	005006b7          	lui	a3,0x500
    12b4:	5322                	lw	t1,40(sp)
    12b6:	8f55                	or	a4,a4,a3
    12b8:	40e7a423          	sw	a4,1032(a5)
    12bc:	5392                	lw	t2,36(sp)
    12be:	44f2                	lw	s1,28(sp)
    12c0:	4562                	lw	a0,24(sp)
    12c2:	45d2                	lw	a1,20(sp)
    12c4:	4642                	lw	a2,16(sp)
    12c6:	46b2                	lw	a3,12(sp)
    12c8:	4722                	lw	a4,8(sp)
    12ca:	4792                	lw	a5,4(sp)
    12cc:	6145                	addi	sp,sp,48
    12ce:	30200073          	mret
    12d2:	47f0                	lw	a2,76(a5)
    12d4:	47fc                	lw	a5,76(a5)
    12d6:	86c19423          	sh	a2,-1944(gp) # 20000108 <ADC_Channel_Vrefint_value>
    12da:	87018513          	addi	a0,gp,-1936 # 20000110 <entropy_buffer>
    12de:	410c                	lw	a1,0(a0)
    12e0:	4158                	lw	a4,4(a0)
    12e2:	8399                	srli	a5,a5,0x6
    12e4:	01f5d293          	srli	t0,a1,0x1f
    12e8:	8b85                	andi	a5,a5,1
    12ea:	0586                	slli	a1,a1,0x1
    12ec:	97ae                	add	a5,a5,a1
    12ee:	00171313          	slli	t1,a4,0x1
    12f2:	0062e333          	or	t1,t0,t1
    12f6:	00b7b733          	sltu	a4,a5,a1
    12fa:	971a                	add	a4,a4,t1
    12fc:	c11c                	sw	a5,0(a0)
    12fe:	c158                	sw	a4,4(a0)
    1300:	87818513          	addi	a0,gp,-1928 # 20000118 <entropy_buffer_count>
    1304:	00054583          	lbu	a1,0(a0)
    1308:	03f00313          	li	t1,63
    130c:	87018613          	addi	a2,gp,-1936 # 20000110 <entropy_buffer>
    1310:	0585                	addi	a1,a1,1
    1312:	0ff5f593          	andi	a1,a1,255
    1316:	00b36863          	bltu	t1,a1,1326 <ADC1_IRQHandler+0xfe>
    131a:	00b50023          	sb	a1,0(a0)
    131e:	478d                	li	a5,3
    1320:	00f68023          	sb	a5,0(a3) # 500000 <_data_lma+0x4fcdd0>
    1324:	b7b1                	j	1270 <ADC1_IRQHandler+0x48>
    1326:	8841c583          	lbu	a1,-1916(gp) # 20000124 <extract_count>
    132a:	88418493          	addi	s1,gp,-1916 # 20000124 <extract_count>
    132e:	00050023          	sb	zero,0(a0)
    1332:	43fd                	li	t2,31
    1334:	87c1a503          	lw	a0,-1924(gp) # 2000011c <extract>
    1338:	4401                	li	s0,0
    133a:	87c18293          	addi	t0,gp,-1924 # 2000011c <extract>
    133e:	c026                	sw	s1,0(sp)
    1340:	01f71493          	slli	s1,a4,0x1f
    1344:	0017d313          	srli	t1,a5,0x1
    1348:	0064e333          	or	t1,s1,t1
    134c:	00f344b3          	xor	s1,t1,a5
    1350:	8885                	andi	s1,s1,1
    1352:	c889                	beqz	s1,1364 <ADC1_IRQHandler+0x13c>
    1354:	0506                	slli	a0,a0,0x1
    1356:	00137313          	andi	t1,t1,1
    135a:	0585                	addi	a1,a1,1
    135c:	951a                	add	a0,a0,t1
    135e:	0ff5f593          	andi	a1,a1,255
    1362:	4405                	li	s0,1
    1364:	01e71313          	slli	t1,a4,0x1e
    1368:	8389                	srli	a5,a5,0x2
    136a:	44fd                	li	s1,31
    136c:	00f367b3          	or	a5,t1,a5
    1370:	8309                	srli	a4,a4,0x2
    1372:	00b4fe63          	bgeu	s1,a1,138e <ADC1_IRQHandler+0x166>
    1376:	c21c                	sw	a5,0(a2)
    1378:	c258                	sw	a4,4(a2)
    137a:	c019                	beqz	s0,1380 <ADC1_IRQHandler+0x158>
    137c:	00a2a023          	sw	a0,0(t0)
    1380:	4782                	lw	a5,0(sp)
    1382:	4705                	li	a4,1
    1384:	00078023          	sb	zero,0(a5)
    1388:	88e1a023          	sw	a4,-1920(gp) # 20000120 <extract_RDY>
    138c:	bf49                	j	131e <ADC1_IRQHandler+0xf6>
    138e:	13fd                	addi	t2,t2,-1
    1390:	0ff3f393          	andi	t2,t2,255
    1394:	fa0396e3          	bnez	t2,1340 <ADC1_IRQHandler+0x118>
    1398:	c21c                	sw	a5,0(a2)
    139a:	c258                	sw	a4,4(a2)
    139c:	d049                	beqz	s0,131e <ADC1_IRQHandler+0xf6>
    139e:	4782                	lw	a5,0(sp)
    13a0:	00a2a023          	sw	a0,0(t0)
    13a4:	00b78023          	sb	a1,0(a5)
    13a8:	bf9d                	j	131e <ADC1_IRQHandler+0xf6>
    13aa:	47f8                	lw	a4,76(a5)
    13ac:	86e19323          	sh	a4,-1946(gp) # 20000106 <ADC_Channel_4_value>
    13b0:	47a1                	li	a5,8
    13b2:	b7bd                	j	1320 <ADC1_IRQHandler+0xf8>
    13b4:	00c68023          	sb	a2,0(a3)
    13b8:	bd65                	j	1270 <ADC1_IRQHandler+0x48>
    13ba:	a001                	j	13ba <ADC1_IRQHandler+0x192>
    13bc:	a001                	j	13bc <ADC1_IRQHandler+0x194>
    13be:	a001                	j	13be <ADC1_IRQHandler+0x196>

000013c0 <SW_Handler>:
    13c0:	a001                	j	13c0 <SW_Handler>

000013c2 <WWDG_IRQHandler>:
    13c2:	a001                	j	13c2 <WWDG_IRQHandler>

000013c4 <PVD_IRQHandler>:
    13c4:	a001                	j	13c4 <PVD_IRQHandler>

000013c6 <FLASH_IRQHandler>:
    13c6:	a001                	j	13c6 <FLASH_IRQHandler>

000013c8 <RCC_IRQHandler>:
    13c8:	a001                	j	13c8 <RCC_IRQHandler>

000013ca <EXTI7_0_IRQHandler>:
    13ca:	a001                	j	13ca <EXTI7_0_IRQHandler>

000013cc <AWU_IRQHandler>:
    13cc:	a001                	j	13cc <AWU_IRQHandler>

000013ce <DMA1_Channel1_IRQHandler>:
    13ce:	a001                	j	13ce <DMA1_Channel1_IRQHandler>

000013d0 <DMA1_Channel2_IRQHandler>:
    13d0:	a001                	j	13d0 <DMA1_Channel2_IRQHandler>

000013d2 <DMA1_Channel3_IRQHandler>:
    13d2:	a001                	j	13d2 <DMA1_Channel3_IRQHandler>

000013d4 <DMA1_Channel4_IRQHandler>:
    13d4:	a001                	j	13d4 <DMA1_Channel4_IRQHandler>

000013d6 <DMA1_Channel5_IRQHandler>:
    13d6:	a001                	j	13d6 <DMA1_Channel5_IRQHandler>

000013d8 <DMA1_Channel6_IRQHandler>:
    13d8:	a001                	j	13d8 <DMA1_Channel6_IRQHandler>

000013da <DMA1_Channel7_IRQHandler>:
    13da:	a001                	j	13da <DMA1_Channel7_IRQHandler>
    13dc:	a001                	j	13dc <DMA1_Channel7_IRQHandler+0x2>

000013de <I2C1_EV_IRQHandler>:
    13de:	a001                	j	13de <I2C1_EV_IRQHandler>

000013e0 <I2C1_ER_IRQHandler>:
    13e0:	a001                	j	13e0 <I2C1_ER_IRQHandler>

000013e2 <USART1_IRQHandler>:
    13e2:	a001                	j	13e2 <USART1_IRQHandler>

000013e4 <SPI1_IRQHandler>:
    13e4:	a001                	j	13e4 <SPI1_IRQHandler>

000013e6 <TIM1_BRK_IRQHandler>:
    13e6:	a001                	j	13e6 <TIM1_BRK_IRQHandler>

000013e8 <TIM1_UP_IRQHandler>:
    13e8:	a001                	j	13e8 <TIM1_UP_IRQHandler>

000013ea <TIM1_TRG_COM_IRQHandler>:
    13ea:	a001                	j	13ea <TIM1_TRG_COM_IRQHandler>

000013ec <TIM1_CC_IRQHandler>:
    13ec:	a001                	j	13ec <TIM1_CC_IRQHandler>

000013ee <TIM2_IRQHandler>:
    13ee:	a001                	j	13ee <TIM2_IRQHandler>

000013f0 <handle_reset>:
    13f0:	1ffff197          	auipc	gp,0x1ffff
    13f4:	4b018193          	addi	gp,gp,1200 # 200008a0 <__global_pointer$>
    13f8:	f6018113          	addi	sp,gp,-160 # 20000800 <_eusrstack>
    13fc:	00002517          	auipc	a0,0x2
    1400:	e3450513          	addi	a0,a0,-460 # 3230 <_data_lma>
    1404:	1ffff597          	auipc	a1,0x1ffff
    1408:	bfc58593          	addi	a1,a1,-1028 # 20000000 <_data_vma>
    140c:	80818613          	addi	a2,gp,-2040 # 200000a8 <_edata>
    1410:	00c5fa63          	bgeu	a1,a2,1424 <handle_reset+0x34>
    1414:	00052283          	lw	t0,0(a0)
    1418:	0055a023          	sw	t0,0(a1)
    141c:	0511                	addi	a0,a0,4
    141e:	0591                	addi	a1,a1,4
    1420:	fec5eae3          	bltu	a1,a2,1414 <handle_reset+0x24>
    1424:	81018513          	addi	a0,gp,-2032 # 200000b0 <__malloc_free_list>
    1428:	89418593          	addi	a1,gp,-1900 # 20000134 <_ebss>
    142c:	00b57763          	bgeu	a0,a1,143a <handle_reset+0x4a>
    1430:	00052023          	sw	zero,0(a0)
    1434:	0511                	addi	a0,a0,4
    1436:	feb56de3          	bltu	a0,a1,1430 <handle_reset+0x40>
    143a:	08000293          	li	t0,128
    143e:	30029073          	csrw	mstatus,t0
    1442:	428d                	li	t0,3
    1444:	80429073          	csrw	0x804,t0
    1448:	fffff297          	auipc	t0,0xfffff
    144c:	bb828293          	addi	t0,t0,-1096 # 0 <_sinit>
    1450:	0032e293          	ori	t0,t0,3
    1454:	30529073          	csrw	mtvec,t0
    1458:	be7ff0ef          	jal	ra,103e <SystemInit>
    145c:	00000297          	auipc	t0,0x0
    1460:	a8e28293          	addi	t0,t0,-1394 # eea <main>
    1464:	34129073          	csrw	mepc,t0
    1468:	30200073          	mret

0000146c <ADC_DeInit>:
    146c:	400127b7          	lui	a5,0x40012
    1470:	40078793          	addi	a5,a5,1024 # 40012400 <__global_pointer$+0x20011b60>
    1474:	00f51e63          	bne	a0,a5,1490 <ADC_DeInit+0x24>
    1478:	c29fe2ef          	jal	t0,a0 <__riscv_save_0>
    147c:	4585                	li	a1,1
    147e:	20000513          	li	a0,512
    1482:	2e8d                	jal	17f4 <RCC_APB2PeriphResetCmd>
    1484:	4581                	li	a1,0
    1486:	20000513          	li	a0,512
    148a:	26ad                	jal	17f4 <RCC_APB2PeriphResetCmd>
    148c:	c1ffe06f          	j	aa <__riscv_restore_0>
    1490:	8082                	ret

00001492 <ADC_Init>:
    1492:	415c                	lw	a5,4(a0)
    1494:	fff10737          	lui	a4,0xfff10
    1498:	eff70713          	addi	a4,a4,-257 # fff0feff <__global_pointer$+0xdff0f65f>
    149c:	8f7d                	and	a4,a4,a5
    149e:	41dc                	lw	a5,4(a1)
    14a0:	4194                	lw	a3,0(a1)
    14a2:	07a2                	slli	a5,a5,0x8
    14a4:	8fd5                	or	a5,a5,a3
    14a6:	8fd9                	or	a5,a5,a4
    14a8:	c15c                	sw	a5,4(a0)
    14aa:	451c                	lw	a5,8(a0)
    14ac:	fff1f737          	lui	a4,0xfff1f
    14b0:	7fd70713          	addi	a4,a4,2045 # fff1f7fd <__global_pointer$+0xdff1ef5d>
    14b4:	45d4                	lw	a3,12(a1)
    14b6:	8f7d                	and	a4,a4,a5
    14b8:	499c                	lw	a5,16(a1)
    14ba:	8fd5                	or	a5,a5,a3
    14bc:	4594                	lw	a3,8(a1)
    14be:	0686                	slli	a3,a3,0x1
    14c0:	8fd5                	or	a5,a5,a3
    14c2:	8fd9                	or	a5,a5,a4
    14c4:	c51c                	sw	a5,8(a0)
    14c6:	555c                	lw	a5,44(a0)
    14c8:	ff100737          	lui	a4,0xff100
    14cc:	177d                	addi	a4,a4,-1
    14ce:	8f7d                	and	a4,a4,a5
    14d0:	0145c783          	lbu	a5,20(a1)
    14d4:	17fd                	addi	a5,a5,-1
    14d6:	0ff7f793          	andi	a5,a5,255
    14da:	07d2                	slli	a5,a5,0x14
    14dc:	8fd9                	or	a5,a5,a4
    14de:	d55c                	sw	a5,44(a0)
    14e0:	8082                	ret

000014e2 <ADC_Cmd>:
    14e2:	451c                	lw	a5,8(a0)
    14e4:	c589                	beqz	a1,14ee <ADC_Cmd+0xc>
    14e6:	0017e793          	ori	a5,a5,1
    14ea:	c51c                	sw	a5,8(a0)
    14ec:	8082                	ret
    14ee:	9bf9                	andi	a5,a5,-2
    14f0:	bfed                	j	14ea <ADC_Cmd+0x8>

000014f2 <ADC_ITConfig>:
    14f2:	415c                	lw	a5,4(a0)
    14f4:	0ff5f593          	andi	a1,a1,255
    14f8:	c601                	beqz	a2,1500 <ADC_ITConfig+0xe>
    14fa:	8ddd                	or	a1,a1,a5
    14fc:	c14c                	sw	a1,4(a0)
    14fe:	8082                	ret
    1500:	fff5c593          	not	a1,a1
    1504:	8dfd                	and	a1,a1,a5
    1506:	bfdd                	j	14fc <ADC_ITConfig+0xa>

00001508 <ADC_ResetCalibration>:
    1508:	451c                	lw	a5,8(a0)
    150a:	0087e793          	ori	a5,a5,8
    150e:	c51c                	sw	a5,8(a0)
    1510:	8082                	ret

00001512 <ADC_GetResetCalibrationStatus>:
    1512:	4508                	lw	a0,8(a0)
    1514:	810d                	srli	a0,a0,0x3
    1516:	8905                	andi	a0,a0,1
    1518:	8082                	ret

0000151a <ADC_StartCalibration>:
    151a:	451c                	lw	a5,8(a0)
    151c:	0047e793          	ori	a5,a5,4
    1520:	c51c                	sw	a5,8(a0)
    1522:	8082                	ret

00001524 <ADC_GetCalibrationStatus>:
    1524:	4508                	lw	a0,8(a0)
    1526:	8109                	srli	a0,a0,0x2
    1528:	8905                	andi	a0,a0,1
    152a:	8082                	ret

0000152c <ADC_SoftwareStartConvCmd>:
    152c:	451c                	lw	a5,8(a0)
    152e:	c591                	beqz	a1,153a <ADC_SoftwareStartConvCmd+0xe>
    1530:	00500737          	lui	a4,0x500
    1534:	8fd9                	or	a5,a5,a4
    1536:	c51c                	sw	a5,8(a0)
    1538:	8082                	ret
    153a:	ffb00737          	lui	a4,0xffb00
    153e:	177d                	addi	a4,a4,-1
    1540:	8ff9                	and	a5,a5,a4
    1542:	bfd5                	j	1536 <ADC_SoftwareStartConvCmd+0xa>

00001544 <ADC_RegularChannelConfig>:
    1544:	47a5                	li	a5,9
    1546:	04b7f863          	bgeu	a5,a1,1596 <ADC_RegularChannelConfig+0x52>
    154a:	ff658713          	addi	a4,a1,-10
    154e:	00171793          	slli	a5,a4,0x1
    1552:	00c52283          	lw	t0,12(a0)
    1556:	97ba                	add	a5,a5,a4
    1558:	431d                	li	t1,7
    155a:	00f31333          	sll	t1,t1,a5
    155e:	fff34313          	not	t1,t1
    1562:	00537333          	and	t1,t1,t0
    1566:	00f697b3          	sll	a5,a3,a5
    156a:	0067e7b3          	or	a5,a5,t1
    156e:	c55c                	sw	a5,12(a0)
    1570:	4799                	li	a5,6
    1572:	04c7e363          	bltu	a5,a2,15b8 <ADC_RegularChannelConfig+0x74>
    1576:	167d                	addi	a2,a2,-1
    1578:	00261793          	slli	a5,a2,0x2
    157c:	963e                	add	a2,a2,a5
    157e:	5958                	lw	a4,52(a0)
    1580:	47fd                	li	a5,31
    1582:	00c797b3          	sll	a5,a5,a2
    1586:	fff7c793          	not	a5,a5
    158a:	8ff9                	and	a5,a5,a4
    158c:	00c595b3          	sll	a1,a1,a2
    1590:	8ddd                	or	a1,a1,a5
    1592:	d94c                	sw	a1,52(a0)
    1594:	8082                	ret
    1596:	00159793          	slli	a5,a1,0x1
    159a:	01052303          	lw	t1,16(a0)
    159e:	97ae                	add	a5,a5,a1
    15a0:	471d                	li	a4,7
    15a2:	00f71733          	sll	a4,a4,a5
    15a6:	fff74713          	not	a4,a4
    15aa:	00677733          	and	a4,a4,t1
    15ae:	00f697b3          	sll	a5,a3,a5
    15b2:	8f5d                	or	a4,a4,a5
    15b4:	c918                	sw	a4,16(a0)
    15b6:	bf6d                	j	1570 <ADC_RegularChannelConfig+0x2c>
    15b8:	47b1                	li	a5,12
    15ba:	02c7e263          	bltu	a5,a2,15de <ADC_RegularChannelConfig+0x9a>
    15be:	1665                	addi	a2,a2,-7
    15c0:	00261793          	slli	a5,a2,0x2
    15c4:	963e                	add	a2,a2,a5
    15c6:	5918                	lw	a4,48(a0)
    15c8:	47fd                	li	a5,31
    15ca:	00c797b3          	sll	a5,a5,a2
    15ce:	fff7c793          	not	a5,a5
    15d2:	8ff9                	and	a5,a5,a4
    15d4:	00c595b3          	sll	a1,a1,a2
    15d8:	8ddd                	or	a1,a1,a5
    15da:	d90c                	sw	a1,48(a0)
    15dc:	8082                	ret
    15de:	164d                	addi	a2,a2,-13
    15e0:	00261713          	slli	a4,a2,0x2
    15e4:	5554                	lw	a3,44(a0)
    15e6:	963a                	add	a2,a2,a4
    15e8:	47fd                	li	a5,31
    15ea:	00c797b3          	sll	a5,a5,a2
    15ee:	fff7c793          	not	a5,a5
    15f2:	8ff5                	and	a5,a5,a3
    15f4:	00c595b3          	sll	a1,a1,a2
    15f8:	8ddd                	or	a1,a1,a5
    15fa:	d54c                	sw	a1,44(a0)
    15fc:	8082                	ret

000015fe <GPIO_Init>:
    15fe:	459c                	lw	a5,8(a1)
    1600:	1161                	addi	sp,sp,-8
    1602:	c222                	sw	s0,4(sp)
    1604:	c026                	sw	s1,0(sp)
    1606:	0107f713          	andi	a4,a5,16
    160a:	00f7f313          	andi	t1,a5,15
    160e:	c701                	beqz	a4,1616 <GPIO_Init+0x18>
    1610:	41d8                	lw	a4,4(a1)
    1612:	00e36333          	or	t1,t1,a4
    1616:	0005d603          	lhu	a2,0(a1)
    161a:	0ff67713          	andi	a4,a2,255
    161e:	c729                	beqz	a4,1668 <GPIO_Init+0x6a>
    1620:	00052383          	lw	t2,0(a0)
    1624:	4701                	li	a4,0
    1626:	02800413          	li	s0,40
    162a:	04800493          	li	s1,72
    162e:	4685                	li	a3,1
    1630:	00e695b3          	sll	a1,a3,a4
    1634:	00b676b3          	and	a3,a2,a1
    1638:	02d59263          	bne	a1,a3,165c <GPIO_Init+0x5e>
    163c:	00271293          	slli	t0,a4,0x2
    1640:	46bd                	li	a3,15
    1642:	005696b3          	sll	a3,a3,t0
    1646:	fff6c693          	not	a3,a3
    164a:	0076f3b3          	and	t2,a3,t2
    164e:	005312b3          	sll	t0,t1,t0
    1652:	0072e3b3          	or	t2,t0,t2
    1656:	06879763          	bne	a5,s0,16c4 <GPIO_Init+0xc6>
    165a:	c94c                	sw	a1,20(a0)
    165c:	0705                	addi	a4,a4,1
    165e:	46a1                	li	a3,8
    1660:	fcd717e3          	bne	a4,a3,162e <GPIO_Init+0x30>
    1664:	00752023          	sw	t2,0(a0)
    1668:	0ff00713          	li	a4,255
    166c:	04c77863          	bgeu	a4,a2,16bc <GPIO_Init+0xbe>
    1670:	00452383          	lw	t2,4(a0)
    1674:	46a1                	li	a3,8
    1676:	02800413          	li	s0,40
    167a:	04800493          	li	s1,72
    167e:	4705                	li	a4,1
    1680:	00d712b3          	sll	t0,a4,a3
    1684:	00567733          	and	a4,a2,t0
    1688:	02e29463          	bne	t0,a4,16b0 <GPIO_Init+0xb2>
    168c:	00269713          	slli	a4,a3,0x2
    1690:	1701                	addi	a4,a4,-32
    1692:	45bd                	li	a1,15
    1694:	00e595b3          	sll	a1,a1,a4
    1698:	fff5c593          	not	a1,a1
    169c:	0075f3b3          	and	t2,a1,t2
    16a0:	00e31733          	sll	a4,t1,a4
    16a4:	007763b3          	or	t2,a4,t2
    16a8:	02879263          	bne	a5,s0,16cc <GPIO_Init+0xce>
    16ac:	00552a23          	sw	t0,20(a0)
    16b0:	0685                	addi	a3,a3,1
    16b2:	4741                	li	a4,16
    16b4:	fce695e3          	bne	a3,a4,167e <GPIO_Init+0x80>
    16b8:	00752223          	sw	t2,4(a0)
    16bc:	4412                	lw	s0,4(sp)
    16be:	4482                	lw	s1,0(sp)
    16c0:	0121                	addi	sp,sp,8
    16c2:	8082                	ret
    16c4:	f8979ce3          	bne	a5,s1,165c <GPIO_Init+0x5e>
    16c8:	c90c                	sw	a1,16(a0)
    16ca:	bf49                	j	165c <GPIO_Init+0x5e>
    16cc:	fe9792e3          	bne	a5,s1,16b0 <GPIO_Init+0xb2>
    16d0:	00552823          	sw	t0,16(a0)
    16d4:	bff1                	j	16b0 <GPIO_Init+0xb2>

000016d6 <NVIC_PriorityGroupConfig>:
    16d6:	88a1a423          	sw	a0,-1912(gp) # 20000128 <NVIC_Priority_Group>
    16da:	8082                	ret

000016dc <RCC_PLLConfig>:
    16dc:	400216b7          	lui	a3,0x40021
    16e0:	42dc                	lw	a5,4(a3)
    16e2:	ffc10737          	lui	a4,0xffc10
    16e6:	177d                	addi	a4,a4,-1
    16e8:	8ff9                	and	a5,a5,a4
    16ea:	8d5d                	or	a0,a0,a5
    16ec:	c2c8                	sw	a0,4(a3)
    16ee:	8082                	ret

000016f0 <RCC_ADCCLKConfig>:
    16f0:	400216b7          	lui	a3,0x40021
    16f4:	42dc                	lw	a5,4(a3)
    16f6:	7741                	lui	a4,0xffff0
    16f8:	7ff70713          	addi	a4,a4,2047 # ffff07ff <__global_pointer$+0xdffeff5f>
    16fc:	8ff9                	and	a5,a5,a4
    16fe:	8d5d                	or	a0,a0,a5
    1700:	c2c8                	sw	a0,4(a3)
    1702:	8082                	ret

00001704 <RCC_LSICmd>:
    1704:	40021737          	lui	a4,0x40021
    1708:	535c                	lw	a5,36(a4)
    170a:	c509                	beqz	a0,1714 <RCC_LSICmd+0x10>
    170c:	0017e793          	ori	a5,a5,1
    1710:	d35c                	sw	a5,36(a4)
    1712:	8082                	ret
    1714:	9bf9                	andi	a5,a5,-2
    1716:	bfed                	j	1710 <RCC_LSICmd+0xc>

00001718 <RCC_GetClocksFreq>:
    1718:	989fe2ef          	jal	t0,a0 <__riscv_save_0>
    171c:	40021737          	lui	a4,0x40021
    1720:	435c                	lw	a5,4(a4)
    1722:	4691                	li	a3,4
    1724:	842a                	mv	s0,a0
    1726:	8bb1                	andi	a5,a5,12
    1728:	00d78563          	beq	a5,a3,1732 <RCC_GetClocksFreq+0x1a>
    172c:	46a1                	li	a3,8
    172e:	06d78f63          	beq	a5,a3,17ac <RCC_GetClocksFreq+0x94>
    1732:	016e37b7          	lui	a5,0x16e3
    1736:	60078793          	addi	a5,a5,1536 # 16e3600 <_data_lma+0x16e03d0>
    173a:	c01c                	sw	a5,0(s0)
    173c:	400216b7          	lui	a3,0x40021
    1740:	42dc                	lw	a5,4(a3)
    1742:	8391                	srli	a5,a5,0x4
    1744:	00f7f713          	andi	a4,a5,15
    1748:	200007b7          	lui	a5,0x20000
    174c:	02c78793          	addi	a5,a5,44 # 2000002c <APBAHBPrescTable>
    1750:	97ba                	add	a5,a5,a4
    1752:	0007c583          	lbu	a1,0(a5)
    1756:	42dc                	lw	a5,4(a3)
    1758:	4018                	lw	a4,0(s0)
    175a:	0ff5f593          	andi	a1,a1,255
    175e:	0807f793          	andi	a5,a5,128
    1762:	00b75533          	srl	a0,a4,a1
    1766:	e781                	bnez	a5,176e <RCC_GetClocksFreq+0x56>
    1768:	853a                	mv	a0,a4
    176a:	96bfe0ef          	jal	ra,d4 <__udivsi3>
    176e:	c048                	sw	a0,4(s0)
    1770:	c408                	sw	a0,8(s0)
    1772:	c448                	sw	a0,12(s0)
    1774:	400217b7          	lui	a5,0x40021
    1778:	43dc                	lw	a5,4(a5)
    177a:	83ad                	srli	a5,a5,0xb
    177c:	8bfd                	andi	a5,a5,31
    177e:	0037d713          	srli	a4,a5,0x3
    1782:	078a                	slli	a5,a5,0x2
    1784:	8bf1                	andi	a5,a5,28
    1786:	8fd9                	or	a5,a5,a4
    1788:	0137f693          	andi	a3,a5,19
    178c:	470d                	li	a4,3
    178e:	00d77363          	bgeu	a4,a3,1794 <RCC_GetClocksFreq+0x7c>
    1792:	17d1                	addi	a5,a5,-12
    1794:	20000737          	lui	a4,0x20000
    1798:	01870713          	addi	a4,a4,24 # 20000018 <ADCPrescTable>
    179c:	97ba                	add	a5,a5,a4
    179e:	0007c583          	lbu	a1,0(a5) # 40021000 <__global_pointer$+0x20020760>
    17a2:	933fe0ef          	jal	ra,d4 <__udivsi3>
    17a6:	c808                	sw	a0,16(s0)
    17a8:	903fe06f          	j	aa <__riscv_restore_0>
    17ac:	435c                	lw	a5,4(a4)
    17ae:	02dc77b7          	lui	a5,0x2dc7
    17b2:	c0078793          	addi	a5,a5,-1024 # 2dc6c00 <_data_lma+0x2dc39d0>
    17b6:	b751                	j	173a <RCC_GetClocksFreq+0x22>

000017b8 <RCC_APB2PeriphClockCmd>:
    17b8:	c599                	beqz	a1,17c6 <RCC_APB2PeriphClockCmd+0xe>
    17ba:	40021737          	lui	a4,0x40021
    17be:	4f1c                	lw	a5,24(a4)
    17c0:	8d5d                	or	a0,a0,a5
    17c2:	cf08                	sw	a0,24(a4)
    17c4:	8082                	ret
    17c6:	400217b7          	lui	a5,0x40021
    17ca:	4f98                	lw	a4,24(a5)
    17cc:	fff54513          	not	a0,a0
    17d0:	8d79                	and	a0,a0,a4
    17d2:	cf88                	sw	a0,24(a5)
    17d4:	8082                	ret

000017d6 <RCC_APB1PeriphClockCmd>:
    17d6:	c599                	beqz	a1,17e4 <RCC_APB1PeriphClockCmd+0xe>
    17d8:	40021737          	lui	a4,0x40021
    17dc:	4f5c                	lw	a5,28(a4)
    17de:	8d5d                	or	a0,a0,a5
    17e0:	cf48                	sw	a0,28(a4)
    17e2:	8082                	ret
    17e4:	400217b7          	lui	a5,0x40021
    17e8:	4fd8                	lw	a4,28(a5)
    17ea:	fff54513          	not	a0,a0
    17ee:	8d79                	and	a0,a0,a4
    17f0:	cfc8                	sw	a0,28(a5)
    17f2:	8082                	ret

000017f4 <RCC_APB2PeriphResetCmd>:
    17f4:	c599                	beqz	a1,1802 <RCC_APB2PeriphResetCmd+0xe>
    17f6:	40021737          	lui	a4,0x40021
    17fa:	475c                	lw	a5,12(a4)
    17fc:	8d5d                	or	a0,a0,a5
    17fe:	c748                	sw	a0,12(a4)
    1800:	8082                	ret
    1802:	400217b7          	lui	a5,0x40021
    1806:	47d8                	lw	a4,12(a5)
    1808:	fff54513          	not	a0,a0
    180c:	8d79                	and	a0,a0,a4
    180e:	c7c8                	sw	a0,12(a5)
    1810:	8082                	ret

00001812 <USART_Init>:
    1812:	88ffe2ef          	jal	t0,a0 <__riscv_save_0>
    1816:	01055683          	lhu	a3,16(a0)
    181a:	77f5                	lui	a5,0xffffd
    181c:	17fd                	addi	a5,a5,-1
    181e:	8ff5                	and	a5,a5,a3
    1820:	0065d683          	lhu	a3,6(a1)
    1824:	00c5d703          	lhu	a4,12(a1)
    1828:	1121                	addi	sp,sp,-24
    182a:	8fd5                	or	a5,a5,a3
    182c:	00f51823          	sh	a5,16(a0)
    1830:	00c55683          	lhu	a3,12(a0)
    1834:	77fd                	lui	a5,0xfffff
    1836:	9f378793          	addi	a5,a5,-1549 # ffffe9f3 <__global_pointer$+0xdfffe153>
    183a:	8ff5                	and	a5,a5,a3
    183c:	0045d683          	lhu	a3,4(a1)
    1840:	842a                	mv	s0,a0
    1842:	c02e                	sw	a1,0(sp)
    1844:	8fd5                	or	a5,a5,a3
    1846:	0085d683          	lhu	a3,8(a1)
    184a:	8fd5                	or	a5,a5,a3
    184c:	00a5d683          	lhu	a3,10(a1)
    1850:	8fd5                	or	a5,a5,a3
    1852:	00f51623          	sh	a5,12(a0)
    1856:	01455783          	lhu	a5,20(a0)
    185a:	07c2                	slli	a5,a5,0x10
    185c:	83c1                	srli	a5,a5,0x10
    185e:	cff7f793          	andi	a5,a5,-769
    1862:	8f5d                	or	a4,a4,a5
    1864:	00e51a23          	sh	a4,20(a0)
    1868:	0048                	addi	a0,sp,4
    186a:	357d                	jal	1718 <RCC_GetClocksFreq>
    186c:	400147b7          	lui	a5,0x40014
    1870:	80078793          	addi	a5,a5,-2048 # 40013800 <__global_pointer$+0x20012f60>
    1874:	4582                	lw	a1,0(sp)
    1876:	06f41563          	bne	s0,a5,18e0 <USART_Init+0xce>
    187a:	47c2                	lw	a5,16(sp)
    187c:	00c45703          	lhu	a4,12(s0)
    1880:	00179513          	slli	a0,a5,0x1
    1884:	953e                	add	a0,a0,a5
    1886:	0742                	slli	a4,a4,0x10
    1888:	050e                	slli	a0,a0,0x3
    188a:	8741                	srai	a4,a4,0x10
    188c:	953e                	add	a0,a0,a5
    188e:	418c                	lw	a1,0(a1)
    1890:	04075a63          	bgez	a4,18e4 <USART_Init+0xd2>
    1894:	0586                	slli	a1,a1,0x1
    1896:	83ffe0ef          	jal	ra,d4 <__udivsi3>
    189a:	06400593          	li	a1,100
    189e:	c02a                	sw	a0,0(sp)
    18a0:	835fe0ef          	jal	ra,d4 <__udivsi3>
    18a4:	4782                	lw	a5,0(sp)
    18a6:	00451493          	slli	s1,a0,0x4
    18aa:	06400593          	li	a1,100
    18ae:	853e                	mv	a0,a5
    18b0:	851fe0ef          	jal	ra,100 <__umodsi3>
    18b4:	00c45783          	lhu	a5,12(s0)
    18b8:	07c2                	slli	a5,a5,0x10
    18ba:	87c1                	srai	a5,a5,0x10
    18bc:	0207d663          	bgez	a5,18e8 <USART_Init+0xd6>
    18c0:	050e                	slli	a0,a0,0x3
    18c2:	06400593          	li	a1,100
    18c6:	03250513          	addi	a0,a0,50
    18ca:	80bfe0ef          	jal	ra,d4 <__udivsi3>
    18ce:	891d                	andi	a0,a0,7
    18d0:	8cc9                	or	s1,s1,a0
    18d2:	04c2                	slli	s1,s1,0x10
    18d4:	80c1                	srli	s1,s1,0x10
    18d6:	00941423          	sh	s1,8(s0)
    18da:	0161                	addi	sp,sp,24
    18dc:	fcefe06f          	j	aa <__riscv_restore_0>
    18e0:	47b2                	lw	a5,12(sp)
    18e2:	bf69                	j	187c <USART_Init+0x6a>
    18e4:	058a                	slli	a1,a1,0x2
    18e6:	bf45                	j	1896 <USART_Init+0x84>
    18e8:	0512                	slli	a0,a0,0x4
    18ea:	06400593          	li	a1,100
    18ee:	03250513          	addi	a0,a0,50
    18f2:	fe2fe0ef          	jal	ra,d4 <__udivsi3>
    18f6:	893d                	andi	a0,a0,15
    18f8:	bfe1                	j	18d0 <USART_Init+0xbe>

000018fa <USART_Cmd>:
    18fa:	c981                	beqz	a1,190a <USART_Cmd+0x10>
    18fc:	00c55783          	lhu	a5,12(a0)
    1900:	6709                	lui	a4,0x2
    1902:	8fd9                	or	a5,a5,a4
    1904:	00f51623          	sh	a5,12(a0)
    1908:	8082                	ret
    190a:	00c55703          	lhu	a4,12(a0)
    190e:	77f9                	lui	a5,0xffffe
    1910:	17fd                	addi	a5,a5,-1
    1912:	8ff9                	and	a5,a5,a4
    1914:	bfc5                	j	1904 <USART_Cmd+0xa>

00001916 <USART_SendData>:
    1916:	1ff5f593          	andi	a1,a1,511
    191a:	00b51223          	sh	a1,4(a0)
    191e:	8082                	ret

00001920 <USART_GetFlagStatus>:
    1920:	00055503          	lhu	a0,0(a0)
    1924:	8d6d                	and	a0,a0,a1
    1926:	00a03533          	snez	a0,a0
    192a:	8082                	ret

0000192c <Delay_Init>:
    192c:	f74fe2ef          	jal	t0,a0 <__riscv_save_0>
    1930:	200007b7          	lui	a5,0x20000
    1934:	0107a503          	lw	a0,16(a5) # 20000010 <SystemCoreClock>
    1938:	007a15b7          	lui	a1,0x7a1
    193c:	20058593          	addi	a1,a1,512 # 7a1200 <_data_lma+0x79dfd0>
    1940:	f94fe0ef          	jal	ra,d4 <__udivsi3>
    1944:	0ff57513          	andi	a0,a0,255
    1948:	88a18723          	sb	a0,-1906(gp) # 2000012e <p_us>
    194c:	00551793          	slli	a5,a0,0x5
    1950:	8f89                	sub	a5,a5,a0
    1952:	078a                	slli	a5,a5,0x2
    1954:	953e                	add	a0,a0,a5
    1956:	050e                	slli	a0,a0,0x3
    1958:	88a19623          	sh	a0,-1908(gp) # 2000012c <p_ms>
    195c:	f4efe06f          	j	aa <__riscv_restore_0>

00001960 <SysTimer>:
    1960:	f40fe2ef          	jal	t0,a0 <__riscv_save_0>
    1964:	37e1                	jal	192c <Delay_Init>
    1966:	e000f7b7          	lui	a5,0xe000f
    196a:	43d8                	lw	a4,4(a5)
    196c:	9b79                	andi	a4,a4,-2
    196e:	c3d8                	sw	a4,4(a5)
    1970:	88c1d703          	lhu	a4,-1908(gp) # 2000012c <p_ms>
    1974:	cb98                	sw	a4,16(a5)
    1976:	0007a423          	sw	zero,8(a5) # e000f008 <__global_pointer$+0xc000e768>
    197a:	4398                	lw	a4,0(a5)
    197c:	00876713          	ori	a4,a4,8
    1980:	c398                	sw	a4,0(a5)
    1982:	4398                	lw	a4,0(a5)
    1984:	00276713          	ori	a4,a4,2
    1988:	c398                	sw	a4,0(a5)
    198a:	4398                	lw	a4,0(a5)
    198c:	00176713          	ori	a4,a4,1
    1990:	c398                	sw	a4,0(a5)
    1992:	f18fe06f          	j	aa <__riscv_restore_0>

00001996 <USART_Printf_Init>:
    1996:	f0afe2ef          	jal	t0,a0 <__riscv_save_0>
    199a:	842a                	mv	s0,a0
    199c:	6511                	lui	a0,0x4
    199e:	1111                	addi	sp,sp,-28
    19a0:	4585                	li	a1,1
    19a2:	02050513          	addi	a0,a0,32 # 4020 <_data_lma+0xdf0>
    19a6:	3d09                	jal	17b8 <RCC_APB2PeriphClockCmd>
    19a8:	02000793          	li	a5,32
    19ac:	00f11023          	sh	a5,0(sp)
    19b0:	40011537          	lui	a0,0x40011
    19b4:	478d                	li	a5,3
    19b6:	c23e                	sw	a5,4(sp)
    19b8:	858a                	mv	a1,sp
    19ba:	47e1                	li	a5,24
    19bc:	40050513          	addi	a0,a0,1024 # 40011400 <__global_pointer$+0x20010b60>
    19c0:	c43e                	sw	a5,8(sp)
    19c2:	c3dff0ef          	jal	ra,15fe <GPIO_Init>
    19c6:	c622                	sw	s0,12(sp)
    19c8:	40014437          	lui	s0,0x40014
    19cc:	000807b7          	lui	a5,0x80
    19d0:	006c                	addi	a1,sp,12
    19d2:	80040513          	addi	a0,s0,-2048 # 40013800 <__global_pointer$+0x20012f60>
    19d6:	ca3e                	sw	a5,20(sp)
    19d8:	c802                	sw	zero,16(sp)
    19da:	00011c23          	sh	zero,24(sp)
    19de:	3d15                	jal	1812 <USART_Init>
    19e0:	4585                	li	a1,1
    19e2:	80040513          	addi	a0,s0,-2048
    19e6:	3f11                	jal	18fa <USART_Cmd>
    19e8:	0171                	addi	sp,sp,28
    19ea:	ec0fe06f          	j	aa <__riscv_restore_0>

000019ee <_write>:
    19ee:	eb2fe2ef          	jal	t0,a0 <__riscv_save_0>
    19f2:	1171                	addi	sp,sp,-4
    19f4:	84ae                	mv	s1,a1
    19f6:	4401                	li	s0,0
    19f8:	02c45d63          	bge	s0,a2,1a32 <_write+0x44>
    19fc:	400147b7          	lui	a5,0x40014
    1a00:	80078713          	addi	a4,a5,-2048 # 40013800 <__global_pointer$+0x20012f60>
    1a04:	853a                	mv	a0,a4
    1a06:	04000593          	li	a1,64
    1a0a:	c032                	sw	a2,0(sp)
    1a0c:	3f11                	jal	1920 <USART_GetFlagStatus>
    1a0e:	400147b7          	lui	a5,0x40014
    1a12:	80078713          	addi	a4,a5,-2048 # 40013800 <__global_pointer$+0x20012f60>
    1a16:	4602                	lw	a2,0(sp)
    1a18:	d575                	beqz	a0,1a04 <_write+0x16>
    1a1a:	00848733          	add	a4,s1,s0
    1a1e:	00070583          	lb	a1,0(a4) # 2000 <__sfputs_r+0x3c>
    1a22:	80078513          	addi	a0,a5,-2048
    1a26:	0405                	addi	s0,s0,1
    1a28:	05c2                	slli	a1,a1,0x10
    1a2a:	81c1                	srli	a1,a1,0x10
    1a2c:	35ed                	jal	1916 <USART_SendData>
    1a2e:	4602                	lw	a2,0(sp)
    1a30:	b7e1                	j	19f8 <_write+0xa>
    1a32:	8532                	mv	a0,a2
    1a34:	0111                	addi	sp,sp,4
    1a36:	e74fe06f          	j	aa <__riscv_restore_0>

00001a3a <_sbrk>:
    1a3a:	20000737          	lui	a4,0x20000
    1a3e:	03c70713          	addi	a4,a4,60 # 2000003c <curbrk.4065>
    1a42:	431c                	lw	a5,0(a4)
    1a44:	89418693          	addi	a3,gp,-1900 # 20000134 <_ebss>
    1a48:	953e                	add	a0,a0,a5
    1a4a:	00d56963          	bltu	a0,a3,1a5c <_sbrk+0x22>
    1a4e:	e6018693          	addi	a3,gp,-416 # 20000700 <_heap_end>
    1a52:	00a6e563          	bltu	a3,a0,1a5c <_sbrk+0x22>
    1a56:	c308                	sw	a0,0(a4)
    1a58:	853e                	mv	a0,a5
    1a5a:	8082                	ret
    1a5c:	57fd                	li	a5,-1
    1a5e:	bfed                	j	1a58 <_sbrk+0x1e>

00001a60 <__get_MISA>:
    1a60:	30102573          	csrr	a0,misa
    1a64:	8082                	ret

00001a66 <__muldi3>:
    1a66:	1121                	addi	sp,sp,-24
    1a68:	c22a                	sw	a0,4(sp)
    1a6a:	c036                	sw	a3,0(sp)
    1a6c:	ca06                	sw	ra,20(sp)
    1a6e:	86aa                	mv	a3,a0
    1a70:	c822                	sw	s0,16(sp)
    1a72:	c626                	sw	s1,12(sp)
    1a74:	8732                	mv	a4,a2
    1a76:	c432                	sw	a2,8(sp)
    1a78:	4781                	li	a5,0
    1a7a:	4501                	li	a0,0
    1a7c:	4301                	li	t1,0
    1a7e:	00668633          	add	a2,a3,t1
    1a82:	00177393          	andi	t2,a4,1
    1a86:	00f50433          	add	s0,a0,a5
    1a8a:	01f6d293          	srli	t0,a3,0x1f
    1a8e:	8305                	srli	a4,a4,0x1
    1a90:	006634b3          	sltu	s1,a2,t1
    1a94:	0786                	slli	a5,a5,0x1
    1a96:	00038563          	beqz	t2,1aa0 <__muldi3+0x3a>
    1a9a:	00848533          	add	a0,s1,s0
    1a9e:	8332                	mv	t1,a2
    1aa0:	0686                	slli	a3,a3,0x1
    1aa2:	0057e7b3          	or	a5,a5,t0
    1aa6:	ff61                	bnez	a4,1a7e <__muldi3+0x18>
    1aa8:	87aa                	mv	a5,a0
    1aaa:	c589                	beqz	a1,1ab4 <__muldi3+0x4e>
    1aac:	4522                	lw	a0,8(sp)
    1aae:	e06fe0ef          	jal	ra,b4 <__mulsi3>
    1ab2:	97aa                	add	a5,a5,a0
    1ab4:	4702                	lw	a4,0(sp)
    1ab6:	c711                	beqz	a4,1ac2 <__muldi3+0x5c>
    1ab8:	4512                	lw	a0,4(sp)
    1aba:	85ba                	mv	a1,a4
    1abc:	df8fe0ef          	jal	ra,b4 <__mulsi3>
    1ac0:	97aa                	add	a5,a5,a0
    1ac2:	40d2                	lw	ra,20(sp)
    1ac4:	4442                	lw	s0,16(sp)
    1ac6:	44b2                	lw	s1,12(sp)
    1ac8:	851a                	mv	a0,t1
    1aca:	85be                	mv	a1,a5
    1acc:	0161                	addi	sp,sp,24
    1ace:	8082                	ret

00001ad0 <abort>:
    1ad0:	1151                	addi	sp,sp,-12
    1ad2:	4519                	li	a0,6
    1ad4:	c406                	sw	ra,8(sp)
    1ad6:	2251                	jal	1c5a <raise>
    1ad8:	4505                	li	a0,1
    1ada:	35a010ef          	jal	ra,2e34 <_exit>

00001ade <memcpy>:
    1ade:	00a5c7b3          	xor	a5,a1,a0
    1ae2:	8b8d                	andi	a5,a5,3
    1ae4:	00c50733          	add	a4,a0,a2
    1ae8:	e781                	bnez	a5,1af0 <memcpy+0x12>
    1aea:	478d                	li	a5,3
    1aec:	02c7e963          	bltu	a5,a2,1b1e <memcpy+0x40>
    1af0:	87aa                	mv	a5,a0
    1af2:	0ce57163          	bgeu	a0,a4,1bb4 <memcpy+0xd6>
    1af6:	0005c683          	lbu	a3,0(a1)
    1afa:	0785                	addi	a5,a5,1
    1afc:	0585                	addi	a1,a1,1
    1afe:	fed78fa3          	sb	a3,-1(a5)
    1b02:	fee7eae3          	bltu	a5,a4,1af6 <memcpy+0x18>
    1b06:	8082                	ret
    1b08:	0005c683          	lbu	a3,0(a1)
    1b0c:	0785                	addi	a5,a5,1
    1b0e:	0585                	addi	a1,a1,1
    1b10:	fed78fa3          	sb	a3,-1(a5)
    1b14:	fee7eae3          	bltu	a5,a4,1b08 <memcpy+0x2a>
    1b18:	4402                	lw	s0,0(sp)
    1b1a:	0111                	addi	sp,sp,4
    1b1c:	8082                	ret
    1b1e:	00357693          	andi	a3,a0,3
    1b22:	87aa                	mv	a5,a0
    1b24:	ca91                	beqz	a3,1b38 <memcpy+0x5a>
    1b26:	0005c683          	lbu	a3,0(a1)
    1b2a:	0785                	addi	a5,a5,1
    1b2c:	0585                	addi	a1,a1,1
    1b2e:	fed78fa3          	sb	a3,-1(a5)
    1b32:	0037f693          	andi	a3,a5,3
    1b36:	b7fd                	j	1b24 <memcpy+0x46>
    1b38:	ffc77693          	andi	a3,a4,-4
    1b3c:	fe068613          	addi	a2,a3,-32 # 40020fe0 <__global_pointer$+0x20020740>
    1b40:	06c7f563          	bgeu	a5,a2,1baa <memcpy+0xcc>
    1b44:	1171                	addi	sp,sp,-4
    1b46:	c022                	sw	s0,0(sp)
    1b48:	49c0                	lw	s0,20(a1)
    1b4a:	0005a303          	lw	t1,0(a1)
    1b4e:	0085a383          	lw	t2,8(a1)
    1b52:	cbc0                	sw	s0,20(a5)
    1b54:	4d80                	lw	s0,24(a1)
    1b56:	0067a023          	sw	t1,0(a5)
    1b5a:	0045a303          	lw	t1,4(a1)
    1b5e:	cf80                	sw	s0,24(a5)
    1b60:	4dc0                	lw	s0,28(a1)
    1b62:	0067a223          	sw	t1,4(a5)
    1b66:	00c5a283          	lw	t0,12(a1)
    1b6a:	0105a303          	lw	t1,16(a1)
    1b6e:	02458593          	addi	a1,a1,36
    1b72:	cfc0                	sw	s0,28(a5)
    1b74:	ffc5a403          	lw	s0,-4(a1)
    1b78:	0077a423          	sw	t2,8(a5)
    1b7c:	0057a623          	sw	t0,12(a5)
    1b80:	0067a823          	sw	t1,16(a5)
    1b84:	02478793          	addi	a5,a5,36
    1b88:	fe87ae23          	sw	s0,-4(a5)
    1b8c:	fac7eee3          	bltu	a5,a2,1b48 <memcpy+0x6a>
    1b90:	f8d7f2e3          	bgeu	a5,a3,1b14 <memcpy+0x36>
    1b94:	4190                	lw	a2,0(a1)
    1b96:	0791                	addi	a5,a5,4
    1b98:	0591                	addi	a1,a1,4
    1b9a:	fec7ae23          	sw	a2,-4(a5)
    1b9e:	bfcd                	j	1b90 <memcpy+0xb2>
    1ba0:	4190                	lw	a2,0(a1)
    1ba2:	0791                	addi	a5,a5,4
    1ba4:	0591                	addi	a1,a1,4
    1ba6:	fec7ae23          	sw	a2,-4(a5)
    1baa:	fed7ebe3          	bltu	a5,a3,1ba0 <memcpy+0xc2>
    1bae:	f4e7e4e3          	bltu	a5,a4,1af6 <memcpy+0x18>
    1bb2:	8082                	ret
    1bb4:	8082                	ret

00001bb6 <iprintf>:
    1bb6:	fdc10113          	addi	sp,sp,-36
    1bba:	d03e                	sw	a5,32(sp)
    1bbc:	c82e                	sw	a1,16(sp)
    1bbe:	ca32                	sw	a2,20(sp)
    1bc0:	cc36                	sw	a3,24(sp)
    1bc2:	ce3a                	sw	a4,28(sp)
    1bc4:	1fffe797          	auipc	a5,0x1fffe
    1bc8:	4dc78793          	addi	a5,a5,1244 # 200000a0 <_impure_ptr>
    1bcc:	c422                	sw	s0,8(sp)
    1bce:	4380                	lw	s0,0(a5)
    1bd0:	c226                	sw	s1,4(sp)
    1bd2:	c606                	sw	ra,12(sp)
    1bd4:	84aa                	mv	s1,a0
    1bd6:	c409                	beqz	s0,1be0 <iprintf+0x2a>
    1bd8:	4c1c                	lw	a5,24(s0)
    1bda:	e399                	bnez	a5,1be0 <iprintf+0x2a>
    1bdc:	8522                	mv	a0,s0
    1bde:	2a9d                	jal	1d54 <__sinit>
    1be0:	440c                	lw	a1,8(s0)
    1be2:	0814                	addi	a3,sp,16
    1be4:	8626                	mv	a2,s1
    1be6:	8522                	mv	a0,s0
    1be8:	c036                	sw	a3,0(sp)
    1bea:	2921                	jal	2002 <_vfiprintf_r>
    1bec:	40b2                	lw	ra,12(sp)
    1bee:	4422                	lw	s0,8(sp)
    1bf0:	4492                	lw	s1,4(sp)
    1bf2:	02410113          	addi	sp,sp,36
    1bf6:	8082                	ret

00001bf8 <_raise_r>:
    1bf8:	47fd                	li	a5,31
    1bfa:	00b7f663          	bgeu	a5,a1,1c06 <_raise_r+0xe>
    1bfe:	47d9                	li	a5,22
    1c00:	c11c                	sw	a5,0(a0)
    1c02:	557d                	li	a0,-1
    1c04:	8082                	ret
    1c06:	417c                	lw	a5,68(a0)
    1c08:	1141                	addi	sp,sp,-16
    1c0a:	c422                	sw	s0,8(sp)
    1c0c:	c606                	sw	ra,12(sp)
    1c0e:	862e                	mv	a2,a1
    1c10:	842a                	mv	s0,a0
    1c12:	c791                	beqz	a5,1c1e <_raise_r+0x26>
    1c14:	00259713          	slli	a4,a1,0x2
    1c18:	97ba                	add	a5,a5,a4
    1c1a:	4398                	lw	a4,0(a5)
    1c1c:	eb19                	bnez	a4,1c32 <_raise_r+0x3a>
    1c1e:	8522                	mv	a0,s0
    1c20:	c032                	sw	a2,0(sp)
    1c22:	288d                	jal	1c94 <_getpid_r>
    1c24:	85aa                	mv	a1,a0
    1c26:	8522                	mv	a0,s0
    1c28:	4422                	lw	s0,8(sp)
    1c2a:	4602                	lw	a2,0(sp)
    1c2c:	40b2                	lw	ra,12(sp)
    1c2e:	0141                	addi	sp,sp,16
    1c30:	a825                	j	1c68 <_kill_r>
    1c32:	4685                	li	a3,1
    1c34:	4501                	li	a0,0
    1c36:	00d70863          	beq	a4,a3,1c46 <_raise_r+0x4e>
    1c3a:	56fd                	li	a3,-1
    1c3c:	00d71963          	bne	a4,a3,1c4e <_raise_r+0x56>
    1c40:	47d9                	li	a5,22
    1c42:	c01c                	sw	a5,0(s0)
    1c44:	4505                	li	a0,1
    1c46:	40b2                	lw	ra,12(sp)
    1c48:	4422                	lw	s0,8(sp)
    1c4a:	0141                	addi	sp,sp,16
    1c4c:	8082                	ret
    1c4e:	852e                	mv	a0,a1
    1c50:	0007a023          	sw	zero,0(a5)
    1c54:	9702                	jalr	a4
    1c56:	4501                	li	a0,0
    1c58:	b7fd                	j	1c46 <_raise_r+0x4e>

00001c5a <raise>:
    1c5a:	1fffe797          	auipc	a5,0x1fffe
    1c5e:	44678793          	addi	a5,a5,1094 # 200000a0 <_impure_ptr>
    1c62:	85aa                	mv	a1,a0
    1c64:	4388                	lw	a0,0(a5)
    1c66:	bf49                	j	1bf8 <_raise_r>

00001c68 <_kill_r>:
    1c68:	1151                	addi	sp,sp,-12
    1c6a:	c222                	sw	s0,4(sp)
    1c6c:	842a                	mv	s0,a0
    1c6e:	852e                	mv	a0,a1
    1c70:	85b2                	mv	a1,a2
    1c72:	8801a823          	sw	zero,-1904(gp) # 20000130 <errno>
    1c76:	c406                	sw	ra,8(sp)
    1c78:	198010ef          	jal	ra,2e10 <_kill>
    1c7c:	57fd                	li	a5,-1
    1c7e:	00f51763          	bne	a0,a5,1c8c <_kill_r+0x24>
    1c82:	89018793          	addi	a5,gp,-1904 # 20000130 <errno>
    1c86:	439c                	lw	a5,0(a5)
    1c88:	c391                	beqz	a5,1c8c <_kill_r+0x24>
    1c8a:	c01c                	sw	a5,0(s0)
    1c8c:	40a2                	lw	ra,8(sp)
    1c8e:	4412                	lw	s0,4(sp)
    1c90:	0131                	addi	sp,sp,12
    1c92:	8082                	ret

00001c94 <_getpid_r>:
    1c94:	1640106f          	j	2df8 <_getpid>

00001c98 <std>:
    1c98:	1151                	addi	sp,sp,-12
    1c9a:	c222                	sw	s0,4(sp)
    1c9c:	c406                	sw	ra,8(sp)
    1c9e:	842a                	mv	s0,a0
    1ca0:	00b51623          	sh	a1,12(a0)
    1ca4:	00c51723          	sh	a2,14(a0)
    1ca8:	00052023          	sw	zero,0(a0)
    1cac:	00052223          	sw	zero,4(a0)
    1cb0:	00052423          	sw	zero,8(a0)
    1cb4:	06052223          	sw	zero,100(a0)
    1cb8:	00052823          	sw	zero,16(a0)
    1cbc:	00052a23          	sw	zero,20(a0)
    1cc0:	00052c23          	sw	zero,24(a0)
    1cc4:	4621                	li	a2,8
    1cc6:	4581                	li	a1,0
    1cc8:	05c50513          	addi	a0,a0,92
    1ccc:	c7efe0ef          	jal	ra,14a <memset>
    1cd0:	00001797          	auipc	a5,0x1
    1cd4:	a1478793          	addi	a5,a5,-1516 # 26e4 <__sread>
    1cd8:	d05c                	sw	a5,36(s0)
    1cda:	00001797          	auipc	a5,0x1
    1cde:	a3a78793          	addi	a5,a5,-1478 # 2714 <__swrite>
    1ce2:	d41c                	sw	a5,40(s0)
    1ce4:	00001797          	auipc	a5,0x1
    1ce8:	a7e78793          	addi	a5,a5,-1410 # 2762 <__sseek>
    1cec:	d45c                	sw	a5,44(s0)
    1cee:	00001797          	auipc	a5,0x1
    1cf2:	aaa78793          	addi	a5,a5,-1366 # 2798 <__sclose>
    1cf6:	d000                	sw	s0,32(s0)
    1cf8:	d81c                	sw	a5,48(s0)
    1cfa:	40a2                	lw	ra,8(sp)
    1cfc:	4412                	lw	s0,4(sp)
    1cfe:	0131                	addi	sp,sp,12
    1d00:	8082                	ret

00001d02 <_cleanup_r>:
    1d02:	00001597          	auipc	a1,0x1
    1d06:	e0458593          	addi	a1,a1,-508 # 2b06 <_fflush_r>
    1d0a:	aa89                	j	1e5c <_fwalk_reent>

00001d0c <__sfmoreglue>:
    1d0c:	1141                	addi	sp,sp,-16
    1d0e:	fff58613          	addi	a2,a1,-1
    1d12:	c422                	sw	s0,8(sp)
    1d14:	00161413          	slli	s0,a2,0x1
    1d18:	9432                	add	s0,s0,a2
    1d1a:	040a                	slli	s0,s0,0x2
    1d1c:	9432                	add	s0,s0,a2
    1d1e:	040e                	slli	s0,s0,0x3
    1d20:	c02e                	sw	a1,0(sp)
    1d22:	07440593          	addi	a1,s0,116
    1d26:	c226                	sw	s1,4(sp)
    1d28:	c606                	sw	ra,12(sp)
    1d2a:	2a49                	jal	1ebc <_malloc_r>
    1d2c:	84aa                	mv	s1,a0
    1d2e:	cd09                	beqz	a0,1d48 <__sfmoreglue+0x3c>
    1d30:	4782                	lw	a5,0(sp)
    1d32:	00052023          	sw	zero,0(a0)
    1d36:	0531                	addi	a0,a0,12
    1d38:	fef52c23          	sw	a5,-8(a0)
    1d3c:	c488                	sw	a0,8(s1)
    1d3e:	06840613          	addi	a2,s0,104
    1d42:	4581                	li	a1,0
    1d44:	c06fe0ef          	jal	ra,14a <memset>
    1d48:	40b2                	lw	ra,12(sp)
    1d4a:	4422                	lw	s0,8(sp)
    1d4c:	8526                	mv	a0,s1
    1d4e:	4492                	lw	s1,4(sp)
    1d50:	0141                	addi	sp,sp,16
    1d52:	8082                	ret

00001d54 <__sinit>:
    1d54:	4d1c                	lw	a5,24(a0)
    1d56:	e3bd                	bnez	a5,1dbc <__sinit+0x68>
    1d58:	1151                	addi	sp,sp,-12
    1d5a:	c406                	sw	ra,8(sp)
    1d5c:	c222                	sw	s0,4(sp)
    1d5e:	00000797          	auipc	a5,0x0
    1d62:	fa478793          	addi	a5,a5,-92 # 1d02 <_cleanup_r>
    1d66:	d51c                	sw	a5,40(a0)
    1d68:	1fffe797          	auipc	a5,0x1fffe
    1d6c:	33c78793          	addi	a5,a5,828 # 200000a4 <_global_impure_ptr>
    1d70:	439c                	lw	a5,0(a5)
    1d72:	04052423          	sw	zero,72(a0)
    1d76:	04052623          	sw	zero,76(a0)
    1d7a:	04052823          	sw	zero,80(a0)
    1d7e:	00f51463          	bne	a0,a5,1d86 <__sinit+0x32>
    1d82:	4785                	li	a5,1
    1d84:	cd1c                	sw	a5,24(a0)
    1d86:	842a                	mv	s0,a0
    1d88:	281d                	jal	1dbe <__sfp>
    1d8a:	c048                	sw	a0,4(s0)
    1d8c:	8522                	mv	a0,s0
    1d8e:	2805                	jal	1dbe <__sfp>
    1d90:	c408                	sw	a0,8(s0)
    1d92:	8522                	mv	a0,s0
    1d94:	202d                	jal	1dbe <__sfp>
    1d96:	c448                	sw	a0,12(s0)
    1d98:	4048                	lw	a0,4(s0)
    1d9a:	4601                	li	a2,0
    1d9c:	4591                	li	a1,4
    1d9e:	3ded                	jal	1c98 <std>
    1da0:	4408                	lw	a0,8(s0)
    1da2:	4605                	li	a2,1
    1da4:	45a5                	li	a1,9
    1da6:	3dcd                	jal	1c98 <std>
    1da8:	4448                	lw	a0,12(s0)
    1daa:	4609                	li	a2,2
    1dac:	45c9                	li	a1,18
    1dae:	35ed                	jal	1c98 <std>
    1db0:	4785                	li	a5,1
    1db2:	cc1c                	sw	a5,24(s0)
    1db4:	40a2                	lw	ra,8(sp)
    1db6:	4412                	lw	s0,4(sp)
    1db8:	0131                	addi	sp,sp,12
    1dba:	8082                	ret
    1dbc:	8082                	ret

00001dbe <__sfp>:
    1dbe:	1141                	addi	sp,sp,-16
    1dc0:	1fffe797          	auipc	a5,0x1fffe
    1dc4:	2e478793          	addi	a5,a5,740 # 200000a4 <_global_impure_ptr>
    1dc8:	c422                	sw	s0,8(sp)
    1dca:	4380                	lw	s0,0(a5)
    1dcc:	c226                	sw	s1,4(sp)
    1dce:	c606                	sw	ra,12(sp)
    1dd0:	4c1c                	lw	a5,24(s0)
    1dd2:	84aa                	mv	s1,a0
    1dd4:	e399                	bnez	a5,1dda <__sfp+0x1c>
    1dd6:	8522                	mv	a0,s0
    1dd8:	3fb5                	jal	1d54 <__sinit>
    1dda:	04840793          	addi	a5,s0,72
    1dde:	4780                	lw	s0,8(a5)
    1de0:	43d8                	lw	a4,4(a5)
    1de2:	177d                	addi	a4,a4,-1
    1de4:	00075663          	bgez	a4,1df0 <__sfp+0x32>
    1de8:	4398                	lw	a4,0(a5)
    1dea:	cf31                	beqz	a4,1e46 <__sfp+0x88>
    1dec:	439c                	lw	a5,0(a5)
    1dee:	bfc5                	j	1dde <__sfp+0x20>
    1df0:	00c41683          	lh	a3,12(s0)
    1df4:	e6b1                	bnez	a3,1e40 <__sfp+0x82>
    1df6:	77c1                	lui	a5,0xffff0
    1df8:	0785                	addi	a5,a5,1
    1dfa:	06042223          	sw	zero,100(s0)
    1dfe:	00042023          	sw	zero,0(s0)
    1e02:	00042223          	sw	zero,4(s0)
    1e06:	00042423          	sw	zero,8(s0)
    1e0a:	c45c                	sw	a5,12(s0)
    1e0c:	00042823          	sw	zero,16(s0)
    1e10:	00042a23          	sw	zero,20(s0)
    1e14:	00042c23          	sw	zero,24(s0)
    1e18:	4621                	li	a2,8
    1e1a:	4581                	li	a1,0
    1e1c:	05c40513          	addi	a0,s0,92
    1e20:	b2afe0ef          	jal	ra,14a <memset>
    1e24:	02042a23          	sw	zero,52(s0)
    1e28:	02042c23          	sw	zero,56(s0)
    1e2c:	04042423          	sw	zero,72(s0)
    1e30:	04042623          	sw	zero,76(s0)
    1e34:	8522                	mv	a0,s0
    1e36:	40b2                	lw	ra,12(sp)
    1e38:	4422                	lw	s0,8(sp)
    1e3a:	4492                	lw	s1,4(sp)
    1e3c:	0141                	addi	sp,sp,16
    1e3e:	8082                	ret
    1e40:	06840413          	addi	s0,s0,104
    1e44:	bf79                	j	1de2 <__sfp+0x24>
    1e46:	4591                	li	a1,4
    1e48:	8526                	mv	a0,s1
    1e4a:	c03e                	sw	a5,0(sp)
    1e4c:	35c1                	jal	1d0c <__sfmoreglue>
    1e4e:	4782                	lw	a5,0(sp)
    1e50:	c388                	sw	a0,0(a5)
    1e52:	fd49                	bnez	a0,1dec <__sfp+0x2e>
    1e54:	47b1                	li	a5,12
    1e56:	c09c                	sw	a5,0(s1)
    1e58:	4401                	li	s0,0
    1e5a:	bfe9                	j	1e34 <__sfp+0x76>

00001e5c <_fwalk_reent>:
    1e5c:	1111                	addi	sp,sp,-28
    1e5e:	ca22                	sw	s0,20(sp)
    1e60:	cc06                	sw	ra,24(sp)
    1e62:	c826                	sw	s1,16(sp)
    1e64:	86aa                	mv	a3,a0
    1e66:	862e                	mv	a2,a1
    1e68:	04850413          	addi	s0,a0,72
    1e6c:	4781                	li	a5,0
    1e6e:	e419                	bnez	s0,1e7c <_fwalk_reent+0x20>
    1e70:	40e2                	lw	ra,24(sp)
    1e72:	4452                	lw	s0,20(sp)
    1e74:	44c2                	lw	s1,16(sp)
    1e76:	853e                	mv	a0,a5
    1e78:	0171                	addi	sp,sp,28
    1e7a:	8082                	ret
    1e7c:	4404                	lw	s1,8(s0)
    1e7e:	4058                	lw	a4,4(s0)
    1e80:	177d                	addi	a4,a4,-1
    1e82:	00075463          	bgez	a4,1e8a <_fwalk_reent+0x2e>
    1e86:	4000                	lw	s0,0(s0)
    1e88:	b7dd                	j	1e6e <_fwalk_reent+0x12>
    1e8a:	00c4d503          	lhu	a0,12(s1) # 300c <zero+0x168>
    1e8e:	4585                	li	a1,1
    1e90:	02a5f363          	bgeu	a1,a0,1eb6 <_fwalk_reent+0x5a>
    1e94:	00e49503          	lh	a0,14(s1)
    1e98:	55fd                	li	a1,-1
    1e9a:	00b50e63          	beq	a0,a1,1eb6 <_fwalk_reent+0x5a>
    1e9e:	8536                	mv	a0,a3
    1ea0:	85a6                	mv	a1,s1
    1ea2:	c63e                	sw	a5,12(sp)
    1ea4:	c43a                	sw	a4,8(sp)
    1ea6:	c236                	sw	a3,4(sp)
    1ea8:	c032                	sw	a2,0(sp)
    1eaa:	9602                	jalr	a2
    1eac:	47b2                	lw	a5,12(sp)
    1eae:	4722                	lw	a4,8(sp)
    1eb0:	4692                	lw	a3,4(sp)
    1eb2:	4602                	lw	a2,0(sp)
    1eb4:	8fc9                	or	a5,a5,a0
    1eb6:	06848493          	addi	s1,s1,104
    1eba:	b7d9                	j	1e80 <_fwalk_reent+0x24>

00001ebc <_malloc_r>:
    1ebc:	1141                	addi	sp,sp,-16
    1ebe:	c226                	sw	s1,4(sp)
    1ec0:	00358493          	addi	s1,a1,3
    1ec4:	98f1                	andi	s1,s1,-4
    1ec6:	c606                	sw	ra,12(sp)
    1ec8:	c422                	sw	s0,8(sp)
    1eca:	04a1                	addi	s1,s1,8
    1ecc:	47b1                	li	a5,12
    1ece:	04f4f963          	bgeu	s1,a5,1f20 <_malloc_r+0x64>
    1ed2:	44b1                	li	s1,12
    1ed4:	04b4e863          	bltu	s1,a1,1f24 <_malloc_r+0x68>
    1ed8:	c02a                	sw	a0,0(sp)
    1eda:	5d9000ef          	jal	ra,2cb2 <__malloc_lock>
    1ede:	81018713          	addi	a4,gp,-2032 # 200000b0 <__malloc_free_list>
    1ee2:	4314                	lw	a3,0(a4)
    1ee4:	4782                	lw	a5,0(sp)
    1ee6:	8436                	mv	s0,a3
    1ee8:	e431                	bnez	s0,1f34 <_malloc_r+0x78>
    1eea:	81418713          	addi	a4,gp,-2028 # 200000b4 <__malloc_sbrk_start>
    1eee:	4318                	lw	a4,0(a4)
    1ef0:	eb09                	bnez	a4,1f02 <_malloc_r+0x46>
    1ef2:	853e                	mv	a0,a5
    1ef4:	4581                	li	a1,0
    1ef6:	c03e                	sw	a5,0(sp)
    1ef8:	7c2000ef          	jal	ra,26ba <_sbrk_r>
    1efc:	80a1aa23          	sw	a0,-2028(gp) # 200000b4 <__malloc_sbrk_start>
    1f00:	4782                	lw	a5,0(sp)
    1f02:	853e                	mv	a0,a5
    1f04:	85a6                	mv	a1,s1
    1f06:	c03e                	sw	a5,0(sp)
    1f08:	7b2000ef          	jal	ra,26ba <_sbrk_r>
    1f0c:	577d                	li	a4,-1
    1f0e:	4782                	lw	a5,0(sp)
    1f10:	06e51663          	bne	a0,a4,1f7c <_malloc_r+0xc0>
    1f14:	4731                	li	a4,12
    1f16:	c398                	sw	a4,0(a5)
    1f18:	853e                	mv	a0,a5
    1f1a:	59b000ef          	jal	ra,2cb4 <__malloc_unlock>
    1f1e:	a029                	j	1f28 <_malloc_r+0x6c>
    1f20:	fa04dae3          	bgez	s1,1ed4 <_malloc_r+0x18>
    1f24:	47b1                	li	a5,12
    1f26:	c11c                	sw	a5,0(a0)
    1f28:	4501                	li	a0,0
    1f2a:	40b2                	lw	ra,12(sp)
    1f2c:	4422                	lw	s0,8(sp)
    1f2e:	4492                	lw	s1,4(sp)
    1f30:	0141                	addi	sp,sp,16
    1f32:	8082                	ret
    1f34:	4018                	lw	a4,0(s0)
    1f36:	8f05                	sub	a4,a4,s1
    1f38:	02074f63          	bltz	a4,1f76 <_malloc_r+0xba>
    1f3c:	462d                	li	a2,11
    1f3e:	00e67663          	bgeu	a2,a4,1f4a <_malloc_r+0x8e>
    1f42:	c018                	sw	a4,0(s0)
    1f44:	943a                	add	s0,s0,a4
    1f46:	c004                	sw	s1,0(s0)
    1f48:	a031                	j	1f54 <_malloc_r+0x98>
    1f4a:	4058                	lw	a4,4(s0)
    1f4c:	02869363          	bne	a3,s0,1f72 <_malloc_r+0xb6>
    1f50:	80e1a823          	sw	a4,-2032(gp) # 200000b0 <__malloc_free_list>
    1f54:	853e                	mv	a0,a5
    1f56:	55f000ef          	jal	ra,2cb4 <__malloc_unlock>
    1f5a:	00b40513          	addi	a0,s0,11
    1f5e:	00440713          	addi	a4,s0,4
    1f62:	9961                	andi	a0,a0,-8
    1f64:	40e507b3          	sub	a5,a0,a4
    1f68:	d3e9                	beqz	a5,1f2a <_malloc_r+0x6e>
    1f6a:	943e                	add	s0,s0,a5
    1f6c:	8f09                	sub	a4,a4,a0
    1f6e:	c018                	sw	a4,0(s0)
    1f70:	bf6d                	j	1f2a <_malloc_r+0x6e>
    1f72:	c2d8                	sw	a4,4(a3)
    1f74:	b7c5                	j	1f54 <_malloc_r+0x98>
    1f76:	86a2                	mv	a3,s0
    1f78:	4040                	lw	s0,4(s0)
    1f7a:	b7bd                	j	1ee8 <_malloc_r+0x2c>
    1f7c:	00350413          	addi	s0,a0,3
    1f80:	9871                	andi	s0,s0,-4
    1f82:	fc8502e3          	beq	a0,s0,1f46 <_malloc_r+0x8a>
    1f86:	40a405b3          	sub	a1,s0,a0
    1f8a:	853e                	mv	a0,a5
    1f8c:	c03e                	sw	a5,0(sp)
    1f8e:	2735                	jal	26ba <_sbrk_r>
    1f90:	577d                	li	a4,-1
    1f92:	4782                	lw	a5,0(sp)
    1f94:	fae519e3          	bne	a0,a4,1f46 <_malloc_r+0x8a>
    1f98:	bfb5                	j	1f14 <_malloc_r+0x58>

00001f9a <__sfputc_r>:
    1f9a:	461c                	lw	a5,8(a2)
    1f9c:	17fd                	addi	a5,a5,-1
    1f9e:	c61c                	sw	a5,8(a2)
    1fa0:	0007da63          	bgez	a5,1fb4 <__sfputc_r+0x1a>
    1fa4:	4e18                	lw	a4,24(a2)
    1fa6:	00e7c563          	blt	a5,a4,1fb0 <__sfputc_r+0x16>
    1faa:	47a9                	li	a5,10
    1fac:	00f59463          	bne	a1,a5,1fb4 <__sfputc_r+0x1a>
    1fb0:	7ee0006f          	j	279e <__swbuf_r>
    1fb4:	421c                	lw	a5,0(a2)
    1fb6:	852e                	mv	a0,a1
    1fb8:	00178713          	addi	a4,a5,1 # ffff0001 <__global_pointer$+0xdffef761>
    1fbc:	c218                	sw	a4,0(a2)
    1fbe:	00b78023          	sb	a1,0(a5)
    1fc2:	8082                	ret

00001fc4 <__sfputs_r>:
    1fc4:	1131                	addi	sp,sp,-20
    1fc6:	c622                	sw	s0,12(sp)
    1fc8:	c426                	sw	s1,8(sp)
    1fca:	c806                	sw	ra,16(sp)
    1fcc:	87aa                	mv	a5,a0
    1fce:	872e                	mv	a4,a1
    1fd0:	8432                	mv	s0,a2
    1fd2:	00d604b3          	add	s1,a2,a3
    1fd6:	00941463          	bne	s0,s1,1fde <__sfputs_r+0x1a>
    1fda:	4501                	li	a0,0
    1fdc:	a831                	j	1ff8 <__sfputs_r+0x34>
    1fde:	00044583          	lbu	a1,0(s0)
    1fe2:	863a                	mv	a2,a4
    1fe4:	853e                	mv	a0,a5
    1fe6:	c23a                	sw	a4,4(sp)
    1fe8:	c03e                	sw	a5,0(sp)
    1fea:	3f45                	jal	1f9a <__sfputc_r>
    1fec:	56fd                	li	a3,-1
    1fee:	0405                	addi	s0,s0,1
    1ff0:	4782                	lw	a5,0(sp)
    1ff2:	4712                	lw	a4,4(sp)
    1ff4:	fed511e3          	bne	a0,a3,1fd6 <__sfputs_r+0x12>
    1ff8:	40c2                	lw	ra,16(sp)
    1ffa:	4432                	lw	s0,12(sp)
    1ffc:	44a2                	lw	s1,8(sp)
    1ffe:	0151                	addi	sp,sp,20
    2000:	8082                	ret

00002002 <_vfiprintf_r>:
    2002:	f7810113          	addi	sp,sp,-136
    2006:	c122                	sw	s0,128(sp)
    2008:	dea6                	sw	s1,124(sp)
    200a:	01f10793          	addi	a5,sp,31
    200e:	c306                	sw	ra,132(sp)
    2010:	c02a                	sw	a0,0(sp)
    2012:	c232                	sw	a2,4(sp)
    2014:	842e                	mv	s0,a1
    2016:	ff87f493          	andi	s1,a5,-8
    201a:	c519                	beqz	a0,2028 <_vfiprintf_r+0x26>
    201c:	4d18                	lw	a4,24(a0)
    201e:	e709                	bnez	a4,2028 <_vfiprintf_r+0x26>
    2020:	c636                	sw	a3,12(sp)
    2022:	d33ff0ef          	jal	ra,1d54 <__sinit>
    2026:	46b2                	lw	a3,12(sp)
    2028:	00001717          	auipc	a4,0x1
    202c:	18c70713          	addi	a4,a4,396 # 31b4 <__sf_fake_stdin>
    2030:	0ee41763          	bne	s0,a4,211e <_vfiprintf_r+0x11c>
    2034:	4782                	lw	a5,0(sp)
    2036:	43c0                	lw	s0,4(a5)
    2038:	00c45703          	lhu	a4,12(s0)
    203c:	8b21                	andi	a4,a4,8
    203e:	10070263          	beqz	a4,2142 <_vfiprintf_r+0x140>
    2042:	4818                	lw	a4,16(s0)
    2044:	0e070f63          	beqz	a4,2142 <_vfiprintf_r+0x140>
    2048:	02000713          	li	a4,32
    204c:	00e48ca3          	sb	a4,25(s1)
    2050:	03000713          	li	a4,48
    2054:	0004aa23          	sw	zero,20(s1)
    2058:	00e48d23          	sb	a4,26(s1)
    205c:	ca36                	sw	a3,20(sp)
    205e:	4712                	lw	a4,4(sp)
    2060:	02500613          	li	a2,37
    2064:	00074683          	lbu	a3,0(a4)
    2068:	c299                	beqz	a3,206e <_vfiprintf_r+0x6c>
    206a:	0ec69a63          	bne	a3,a2,215e <_vfiprintf_r+0x15c>
    206e:	4792                	lw	a5,4(sp)
    2070:	40f70333          	sub	t1,a4,a5
    2074:	02030163          	beqz	t1,2096 <_vfiprintf_r+0x94>
    2078:	4502                	lw	a0,0(sp)
    207a:	869a                	mv	a3,t1
    207c:	863e                	mv	a2,a5
    207e:	85a2                	mv	a1,s0
    2080:	c83a                	sw	a4,16(sp)
    2082:	c61a                	sw	t1,12(sp)
    2084:	3781                	jal	1fc4 <__sfputs_r>
    2086:	56fd                	li	a3,-1
    2088:	20d50e63          	beq	a0,a3,22a4 <_vfiprintf_r+0x2a2>
    208c:	48d4                	lw	a3,20(s1)
    208e:	4332                	lw	t1,12(sp)
    2090:	4742                	lw	a4,16(sp)
    2092:	969a                	add	a3,a3,t1
    2094:	c8d4                	sw	a3,20(s1)
    2096:	00074683          	lbu	a3,0(a4)
    209a:	20068563          	beqz	a3,22a4 <_vfiprintf_r+0x2a2>
    209e:	00170313          	addi	t1,a4,1
    20a2:	577d                	li	a4,-1
    20a4:	0004a023          	sw	zero,0(s1)
    20a8:	0004a623          	sw	zero,12(s1)
    20ac:	c0d8                	sw	a4,4(s1)
    20ae:	0004a423          	sw	zero,8(s1)
    20b2:	040481a3          	sb	zero,67(s1)
    20b6:	0404ac23          	sw	zero,88(s1)
    20ba:	00034583          	lbu	a1,0(t1)
    20be:	4615                	li	a2,5
    20c0:	00001517          	auipc	a0,0x1
    20c4:	13450513          	addi	a0,a0,308 # 31f4 <__sf_fake_stdout+0x20>
    20c8:	c21a                	sw	t1,4(sp)
    20ca:	3cf000ef          	jal	ra,2c98 <memchr>
    20ce:	4312                	lw	t1,4(sp)
    20d0:	4094                	lw	a3,0(s1)
    20d2:	00130713          	addi	a4,t1,1
    20d6:	e551                	bnez	a0,2162 <_vfiprintf_r+0x160>
    20d8:	0106f613          	andi	a2,a3,16
    20dc:	c609                	beqz	a2,20e6 <_vfiprintf_r+0xe4>
    20de:	02000613          	li	a2,32
    20e2:	04c481a3          	sb	a2,67(s1)
    20e6:	0086f613          	andi	a2,a3,8
    20ea:	c609                	beqz	a2,20f4 <_vfiprintf_r+0xf2>
    20ec:	02b00613          	li	a2,43
    20f0:	04c481a3          	sb	a2,67(s1)
    20f4:	00034583          	lbu	a1,0(t1)
    20f8:	02a00613          	li	a2,42
    20fc:	08c58063          	beq	a1,a2,217c <_vfiprintf_r+0x17a>
    2100:	44d4                	lw	a3,12(s1)
    2102:	871a                	mv	a4,t1
    2104:	4581                	li	a1,0
    2106:	4525                	li	a0,9
    2108:	00074603          	lbu	a2,0(a4)
    210c:	00170313          	addi	t1,a4,1
    2110:	fd060613          	addi	a2,a2,-48
    2114:	0ac57963          	bgeu	a0,a2,21c6 <_vfiprintf_r+0x1c4>
    2118:	c9b5                	beqz	a1,218c <_vfiprintf_r+0x18a>
    211a:	c4d4                	sw	a3,12(s1)
    211c:	a885                	j	218c <_vfiprintf_r+0x18a>
    211e:	00001717          	auipc	a4,0x1
    2122:	0b670713          	addi	a4,a4,182 # 31d4 <__sf_fake_stdout>
    2126:	00e41563          	bne	s0,a4,2130 <_vfiprintf_r+0x12e>
    212a:	4782                	lw	a5,0(sp)
    212c:	4780                	lw	s0,8(a5)
    212e:	b729                	j	2038 <_vfiprintf_r+0x36>
    2130:	00001717          	auipc	a4,0x1
    2134:	06470713          	addi	a4,a4,100 # 3194 <__sf_fake_stderr>
    2138:	f0e410e3          	bne	s0,a4,2038 <_vfiprintf_r+0x36>
    213c:	4782                	lw	a5,0(sp)
    213e:	47c0                	lw	s0,12(a5)
    2140:	bde5                	j	2038 <_vfiprintf_r+0x36>
    2142:	4502                	lw	a0,0(sp)
    2144:	85a2                	mv	a1,s0
    2146:	c636                	sw	a3,12(sp)
    2148:	27b9                	jal	2896 <__swsetup_r>
    214a:	46b2                	lw	a3,12(sp)
    214c:	ee050ee3          	beqz	a0,2048 <_vfiprintf_r+0x46>
    2150:	557d                	li	a0,-1
    2152:	409a                	lw	ra,132(sp)
    2154:	440a                	lw	s0,128(sp)
    2156:	54f6                	lw	s1,124(sp)
    2158:	08810113          	addi	sp,sp,136
    215c:	8082                	ret
    215e:	0705                	addi	a4,a4,1
    2160:	b711                	j	2064 <_vfiprintf_r+0x62>
    2162:	00001617          	auipc	a2,0x1
    2166:	09260613          	addi	a2,a2,146 # 31f4 <__sf_fake_stdout+0x20>
    216a:	40c50633          	sub	a2,a0,a2
    216e:	4505                	li	a0,1
    2170:	00c51533          	sll	a0,a0,a2
    2174:	8ec9                	or	a3,a3,a0
    2176:	c094                	sw	a3,0(s1)
    2178:	833a                	mv	t1,a4
    217a:	b781                	j	20ba <_vfiprintf_r+0xb8>
    217c:	4652                	lw	a2,20(sp)
    217e:	00460593          	addi	a1,a2,4
    2182:	4210                	lw	a2,0(a2)
    2184:	ca2e                	sw	a1,20(sp)
    2186:	02064963          	bltz	a2,21b8 <_vfiprintf_r+0x1b6>
    218a:	c4d0                	sw	a2,12(s1)
    218c:	00074603          	lbu	a2,0(a4)
    2190:	02e00693          	li	a3,46
    2194:	06d61363          	bne	a2,a3,21fa <_vfiprintf_r+0x1f8>
    2198:	00174603          	lbu	a2,1(a4)
    219c:	02a00693          	li	a3,42
    21a0:	02d61e63          	bne	a2,a3,21dc <_vfiprintf_r+0x1da>
    21a4:	46d2                	lw	a3,20(sp)
    21a6:	0709                	addi	a4,a4,2
    21a8:	00468613          	addi	a2,a3,4
    21ac:	4294                	lw	a3,0(a3)
    21ae:	ca32                	sw	a2,20(sp)
    21b0:	0206c463          	bltz	a3,21d8 <_vfiprintf_r+0x1d6>
    21b4:	c0d4                	sw	a3,4(s1)
    21b6:	a091                	j	21fa <_vfiprintf_r+0x1f8>
    21b8:	40c00633          	neg	a2,a2
    21bc:	0026e693          	ori	a3,a3,2
    21c0:	c4d0                	sw	a2,12(s1)
    21c2:	c094                	sw	a3,0(s1)
    21c4:	b7e1                	j	218c <_vfiprintf_r+0x18a>
    21c6:	00269713          	slli	a4,a3,0x2
    21ca:	9736                	add	a4,a4,a3
    21cc:	0706                	slli	a4,a4,0x1
    21ce:	00c706b3          	add	a3,a4,a2
    21d2:	4585                	li	a1,1
    21d4:	871a                	mv	a4,t1
    21d6:	bf0d                	j	2108 <_vfiprintf_r+0x106>
    21d8:	56fd                	li	a3,-1
    21da:	bfe9                	j	21b4 <_vfiprintf_r+0x1b2>
    21dc:	0705                	addi	a4,a4,1
    21de:	0004a223          	sw	zero,4(s1)
    21e2:	4581                	li	a1,0
    21e4:	4681                	li	a3,0
    21e6:	4525                	li	a0,9
    21e8:	00074603          	lbu	a2,0(a4)
    21ec:	00170313          	addi	t1,a4,1
    21f0:	fd060613          	addi	a2,a2,-48
    21f4:	06c57c63          	bgeu	a0,a2,226c <_vfiprintf_r+0x26a>
    21f8:	fdd5                	bnez	a1,21b4 <_vfiprintf_r+0x1b2>
    21fa:	00074583          	lbu	a1,0(a4)
    21fe:	460d                	li	a2,3
    2200:	00001517          	auipc	a0,0x1
    2204:	ffc50513          	addi	a0,a0,-4 # 31fc <__sf_fake_stdout+0x28>
    2208:	c23a                	sw	a4,4(sp)
    220a:	28f000ef          	jal	ra,2c98 <memchr>
    220e:	4712                	lw	a4,4(sp)
    2210:	cd11                	beqz	a0,222c <_vfiprintf_r+0x22a>
    2212:	00001697          	auipc	a3,0x1
    2216:	fea68693          	addi	a3,a3,-22 # 31fc <__sf_fake_stdout+0x28>
    221a:	8d15                	sub	a0,a0,a3
    221c:	04000693          	li	a3,64
    2220:	00a696b3          	sll	a3,a3,a0
    2224:	4088                	lw	a0,0(s1)
    2226:	0705                	addi	a4,a4,1
    2228:	8d55                	or	a0,a0,a3
    222a:	c088                	sw	a0,0(s1)
    222c:	00074583          	lbu	a1,0(a4)
    2230:	00170793          	addi	a5,a4,1
    2234:	4619                	li	a2,6
    2236:	00001517          	auipc	a0,0x1
    223a:	fca50513          	addi	a0,a0,-54 # 3200 <__sf_fake_stdout+0x2c>
    223e:	c23e                	sw	a5,4(sp)
    2240:	00b48c23          	sb	a1,24(s1)
    2244:	255000ef          	jal	ra,2c98 <memchr>
    2248:	c535                	beqz	a0,22b4 <_vfiprintf_r+0x2b2>
    224a:	ffffe717          	auipc	a4,0xffffe
    224e:	db670713          	addi	a4,a4,-586 # 0 <_sinit>
    2252:	eb05                	bnez	a4,2282 <_vfiprintf_r+0x280>
    2254:	4094                	lw	a3,0(s1)
    2256:	4752                	lw	a4,20(sp)
    2258:	1006f693          	andi	a3,a3,256
    225c:	c28d                	beqz	a3,227e <_vfiprintf_r+0x27c>
    225e:	0711                	addi	a4,a4,4
    2260:	ca3a                	sw	a4,20(sp)
    2262:	48d8                	lw	a4,20(s1)
    2264:	47a2                	lw	a5,8(sp)
    2266:	973e                	add	a4,a4,a5
    2268:	c8d8                	sw	a4,20(s1)
    226a:	bbd5                	j	205e <_vfiprintf_r+0x5c>
    226c:	00269713          	slli	a4,a3,0x2
    2270:	9736                	add	a4,a4,a3
    2272:	0706                	slli	a4,a4,0x1
    2274:	00c706b3          	add	a3,a4,a2
    2278:	4585                	li	a1,1
    227a:	871a                	mv	a4,t1
    227c:	b7b5                	j	21e8 <_vfiprintf_r+0x1e6>
    227e:	0721                	addi	a4,a4,8
    2280:	b7c5                	j	2260 <_vfiprintf_r+0x25e>
    2282:	4502                	lw	a0,0(sp)
    2284:	0858                	addi	a4,sp,20
    2286:	00000697          	auipc	a3,0x0
    228a:	d3e68693          	addi	a3,a3,-706 # 1fc4 <__sfputs_r>
    228e:	8622                	mv	a2,s0
    2290:	85a6                	mv	a1,s1
    2292:	00000097          	auipc	ra,0x0
    2296:	000000e7          	jalr	zero # 0 <_sinit>
    229a:	c42a                	sw	a0,8(sp)
    229c:	47a2                	lw	a5,8(sp)
    229e:	577d                	li	a4,-1
    22a0:	fce791e3          	bne	a5,a4,2262 <_vfiprintf_r+0x260>
    22a4:	00c45703          	lhu	a4,12(s0)
    22a8:	04077713          	andi	a4,a4,64
    22ac:	ea0712e3          	bnez	a4,2150 <_vfiprintf_r+0x14e>
    22b0:	48c8                	lw	a0,20(s1)
    22b2:	b545                	j	2152 <_vfiprintf_r+0x150>
    22b4:	4502                	lw	a0,0(sp)
    22b6:	0858                	addi	a4,sp,20
    22b8:	00000697          	auipc	a3,0x0
    22bc:	d0c68693          	addi	a3,a3,-756 # 1fc4 <__sfputs_r>
    22c0:	8622                	mv	a2,s0
    22c2:	85a6                	mv	a1,s1
    22c4:	2a05                	jal	23f4 <_printf_i>
    22c6:	bfd1                	j	229a <_vfiprintf_r+0x298>

000022c8 <_printf_common>:
    22c8:	1101                	addi	sp,sp,-32
    22ca:	ca26                	sw	s1,20(sp)
    22cc:	8332                	mv	t1,a2
    22ce:	84b6                	mv	s1,a3
    22d0:	4590                	lw	a2,8(a1)
    22d2:	4994                	lw	a3,16(a1)
    22d4:	cc22                	sw	s0,24(sp)
    22d6:	ce06                	sw	ra,28(sp)
    22d8:	842a                	mv	s0,a0
    22da:	87ae                	mv	a5,a1
    22dc:	00c6d363          	bge	a3,a2,22e2 <_printf_common+0x1a>
    22e0:	86b2                	mv	a3,a2
    22e2:	00d32023          	sw	a3,0(t1)
    22e6:	0437c603          	lbu	a2,67(a5)
    22ea:	c601                	beqz	a2,22f2 <_printf_common+0x2a>
    22ec:	0685                	addi	a3,a3,1
    22ee:	00d32023          	sw	a3,0(t1)
    22f2:	4394                	lw	a3,0(a5)
    22f4:	0206f693          	andi	a3,a3,32
    22f8:	c691                	beqz	a3,2304 <_printf_common+0x3c>
    22fa:	00032683          	lw	a3,0(t1)
    22fe:	0689                	addi	a3,a3,2
    2300:	00d32023          	sw	a3,0(t1)
    2304:	0007a283          	lw	t0,0(a5)
    2308:	01978393          	addi	t2,a5,25
    230c:	0062f293          	andi	t0,t0,6
    2310:	06028363          	beqz	t0,2376 <_printf_common+0xae>
    2314:	4390                	lw	a2,0(a5)
    2316:	0437c683          	lbu	a3,67(a5)
    231a:	02067613          	andi	a2,a2,32
    231e:	00d036b3          	snez	a3,a3
    2322:	ea41                	bnez	a2,23b2 <_printf_common+0xea>
    2324:	04378613          	addi	a2,a5,67
    2328:	85a6                	mv	a1,s1
    232a:	8522                	mv	a0,s0
    232c:	c41a                	sw	t1,8(sp)
    232e:	c23e                	sw	a5,4(sp)
    2330:	c03a                	sw	a4,0(sp)
    2332:	9702                	jalr	a4
    2334:	56fd                	li	a3,-1
    2336:	06d50863          	beq	a0,a3,23a6 <_printf_common+0xde>
    233a:	4792                	lw	a5,4(sp)
    233c:	4322                	lw	t1,8(sp)
    233e:	4511                	li	a0,4
    2340:	4394                	lw	a3,0(a5)
    2342:	00032603          	lw	a2,0(t1)
    2346:	47cc                	lw	a1,12(a5)
    2348:	8a99                	andi	a3,a3,6
    234a:	4301                	li	t1,0
    234c:	4702                	lw	a4,0(sp)
    234e:	00a69763          	bne	a3,a0,235c <_printf_common+0x94>
    2352:	40c58333          	sub	t1,a1,a2
    2356:	00035363          	bgez	t1,235c <_printf_common+0x94>
    235a:	4301                	li	t1,0
    235c:	4794                	lw	a3,8(a5)
    235e:	4b90                	lw	a2,16(a5)
    2360:	00d65463          	bge	a2,a3,2368 <_printf_common+0xa0>
    2364:	8e91                	sub	a3,a3,a2
    2366:	9336                	add	t1,t1,a3
    2368:	4281                	li	t0,0
    236a:	07e9                	addi	a5,a5,26
    236c:	06531263          	bne	t1,t0,23d0 <_printf_common+0x108>
    2370:	4501                	li	a0,0
    2372:	a81d                	j	23a8 <_printf_common+0xe0>
    2374:	0285                	addi	t0,t0,1
    2376:	47d4                	lw	a3,12(a5)
    2378:	00032603          	lw	a2,0(t1)
    237c:	8e91                	sub	a3,a3,a2
    237e:	f8d2dbe3          	bge	t0,a3,2314 <_printf_common+0x4c>
    2382:	4685                	li	a3,1
    2384:	861e                	mv	a2,t2
    2386:	85a6                	mv	a1,s1
    2388:	8522                	mv	a0,s0
    238a:	c81a                	sw	t1,16(sp)
    238c:	c63e                	sw	a5,12(sp)
    238e:	c416                	sw	t0,8(sp)
    2390:	c21e                	sw	t2,4(sp)
    2392:	c03a                	sw	a4,0(sp)
    2394:	9702                	jalr	a4
    2396:	56fd                	li	a3,-1
    2398:	4702                	lw	a4,0(sp)
    239a:	4392                	lw	t2,4(sp)
    239c:	42a2                	lw	t0,8(sp)
    239e:	47b2                	lw	a5,12(sp)
    23a0:	4342                	lw	t1,16(sp)
    23a2:	fcd519e3          	bne	a0,a3,2374 <_printf_common+0xac>
    23a6:	557d                	li	a0,-1
    23a8:	40f2                	lw	ra,28(sp)
    23aa:	4462                	lw	s0,24(sp)
    23ac:	44d2                	lw	s1,20(sp)
    23ae:	6105                	addi	sp,sp,32
    23b0:	8082                	ret
    23b2:	00d785b3          	add	a1,a5,a3
    23b6:	03000513          	li	a0,48
    23ba:	04a581a3          	sb	a0,67(a1)
    23be:	0457c583          	lbu	a1,69(a5)
    23c2:	00168613          	addi	a2,a3,1
    23c6:	963e                	add	a2,a2,a5
    23c8:	0689                	addi	a3,a3,2
    23ca:	04b601a3          	sb	a1,67(a2)
    23ce:	bf99                	j	2324 <_printf_common+0x5c>
    23d0:	4685                	li	a3,1
    23d2:	863e                	mv	a2,a5
    23d4:	85a6                	mv	a1,s1
    23d6:	8522                	mv	a0,s0
    23d8:	c616                	sw	t0,12(sp)
    23da:	c41a                	sw	t1,8(sp)
    23dc:	c23e                	sw	a5,4(sp)
    23de:	c03a                	sw	a4,0(sp)
    23e0:	9702                	jalr	a4
    23e2:	56fd                	li	a3,-1
    23e4:	fcd501e3          	beq	a0,a3,23a6 <_printf_common+0xde>
    23e8:	42b2                	lw	t0,12(sp)
    23ea:	4322                	lw	t1,8(sp)
    23ec:	4792                	lw	a5,4(sp)
    23ee:	0285                	addi	t0,t0,1
    23f0:	4702                	lw	a4,0(sp)
    23f2:	bfad                	j	236c <_printf_common+0xa4>

000023f4 <_printf_i>:
    23f4:	fd410113          	addi	sp,sp,-44
    23f8:	d222                	sw	s0,36(sp)
    23fa:	d406                	sw	ra,40(sp)
    23fc:	d026                	sw	s1,32(sp)
    23fe:	c232                	sw	a2,4(sp)
    2400:	0185c603          	lbu	a2,24(a1)
    2404:	c436                	sw	a3,8(sp)
    2406:	c02a                	sw	a0,0(sp)
    2408:	06900693          	li	a3,105
    240c:	842e                	mv	s0,a1
    240e:	04358293          	addi	t0,a1,67
    2412:	02d60d63          	beq	a2,a3,244c <_printf_i+0x58>
    2416:	06c6e263          	bltu	a3,a2,247a <_printf_i+0x86>
    241a:	05800693          	li	a3,88
    241e:	1ad60363          	beq	a2,a3,25c4 <_printf_i+0x1d0>
    2422:	00c6ed63          	bltu	a3,a2,243c <_printf_i+0x48>
    2426:	22060c63          	beqz	a2,265e <_printf_i+0x26a>
    242a:	04300693          	li	a3,67
    242e:	0ad60d63          	beq	a2,a3,24e8 <_printf_i+0xf4>
    2432:	04240493          	addi	s1,s0,66
    2436:	04c40123          	sb	a2,66(s0)
    243a:	a0c1                	j	24fa <_printf_i+0x106>
    243c:	06300693          	li	a3,99
    2440:	0ad60463          	beq	a2,a3,24e8 <_printf_i+0xf4>
    2444:	06400693          	li	a3,100
    2448:	fed615e3          	bne	a2,a3,2432 <_printf_i+0x3e>
    244c:	4014                	lw	a3,0(s0)
    244e:	4308                	lw	a0,0(a4)
    2450:	0806f613          	andi	a2,a3,128
    2454:	00450593          	addi	a1,a0,4
    2458:	c25d                	beqz	a2,24fe <_printf_i+0x10a>
    245a:	4114                	lw	a3,0(a0)
    245c:	c30c                	sw	a1,0(a4)
    245e:	0006d863          	bgez	a3,246e <_printf_i+0x7a>
    2462:	02d00713          	li	a4,45
    2466:	40d006b3          	neg	a3,a3
    246a:	04e401a3          	sb	a4,67(s0)
    246e:	00001617          	auipc	a2,0x1
    2472:	d9a60613          	addi	a2,a2,-614 # 3208 <__sf_fake_stdout+0x34>
    2476:	4729                	li	a4,10
    2478:	a865                	j	2530 <_printf_i+0x13c>
    247a:	07000693          	li	a3,112
    247e:	16d60f63          	beq	a2,a3,25fc <_printf_i+0x208>
    2482:	02c6e563          	bltu	a3,a2,24ac <_printf_i+0xb8>
    2486:	06e00693          	li	a3,110
    248a:	1ad60663          	beq	a2,a3,2636 <_printf_i+0x242>
    248e:	06f00693          	li	a3,111
    2492:	fad610e3          	bne	a2,a3,2432 <_printf_i+0x3e>
    2496:	400c                	lw	a1,0(s0)
    2498:	4314                	lw	a3,0(a4)
    249a:	0805f313          	andi	t1,a1,128
    249e:	00468513          	addi	a0,a3,4
    24a2:	06030663          	beqz	t1,250e <_printf_i+0x11a>
    24a6:	c308                	sw	a0,0(a4)
    24a8:	4294                	lw	a3,0(a3)
    24aa:	a885                	j	251a <_printf_i+0x126>
    24ac:	07500693          	li	a3,117
    24b0:	fed603e3          	beq	a2,a3,2496 <_printf_i+0xa2>
    24b4:	07800693          	li	a3,120
    24b8:	14d60663          	beq	a2,a3,2604 <_printf_i+0x210>
    24bc:	07300693          	li	a3,115
    24c0:	f6d619e3          	bne	a2,a3,2432 <_printf_i+0x3e>
    24c4:	4314                	lw	a3,0(a4)
    24c6:	00468613          	addi	a2,a3,4
    24ca:	c310                	sw	a2,0(a4)
    24cc:	4284                	lw	s1,0(a3)
    24ce:	41d0                	lw	a2,4(a1)
    24d0:	4581                	li	a1,0
    24d2:	8526                	mv	a0,s1
    24d4:	7c4000ef          	jal	ra,2c98 <memchr>
    24d8:	c119                	beqz	a0,24de <_printf_i+0xea>
    24da:	8d05                	sub	a0,a0,s1
    24dc:	c048                	sw	a0,4(s0)
    24de:	4058                	lw	a4,4(s0)
    24e0:	c818                	sw	a4,16(s0)
    24e2:	040401a3          	sb	zero,67(s0)
    24e6:	a875                	j	25a2 <_printf_i+0x1ae>
    24e8:	4314                	lw	a3,0(a4)
    24ea:	04240493          	addi	s1,s0,66
    24ee:	00468613          	addi	a2,a3,4
    24f2:	c310                	sw	a2,0(a4)
    24f4:	4298                	lw	a4,0(a3)
    24f6:	04e40123          	sb	a4,66(s0)
    24fa:	4705                	li	a4,1
    24fc:	b7d5                	j	24e0 <_printf_i+0xec>
    24fe:	0406f613          	andi	a2,a3,64
    2502:	4114                	lw	a3,0(a0)
    2504:	c30c                	sw	a1,0(a4)
    2506:	de21                	beqz	a2,245e <_printf_i+0x6a>
    2508:	06c2                	slli	a3,a3,0x10
    250a:	86c1                	srai	a3,a3,0x10
    250c:	bf89                	j	245e <_printf_i+0x6a>
    250e:	0405f593          	andi	a1,a1,64
    2512:	c308                	sw	a0,0(a4)
    2514:	d9d1                	beqz	a1,24a8 <_printf_i+0xb4>
    2516:	0006d683          	lhu	a3,0(a3)
    251a:	06f00713          	li	a4,111
    251e:	10e60463          	beq	a2,a4,2626 <_printf_i+0x232>
    2522:	00001617          	auipc	a2,0x1
    2526:	ce660613          	addi	a2,a2,-794 # 3208 <__sf_fake_stdout+0x34>
    252a:	4729                	li	a4,10
    252c:	040401a3          	sb	zero,67(s0)
    2530:	404c                	lw	a1,4(s0)
    2532:	c40c                	sw	a1,8(s0)
    2534:	0005c563          	bltz	a1,253e <_printf_i+0x14a>
    2538:	4008                	lw	a0,0(s0)
    253a:	996d                	andi	a0,a0,-5
    253c:	c008                	sw	a0,0(s0)
    253e:	e299                	bnez	a3,2544 <_printf_i+0x150>
    2540:	8496                	mv	s1,t0
    2542:	cd8d                	beqz	a1,257c <_printf_i+0x188>
    2544:	8496                	mv	s1,t0
    2546:	85ba                	mv	a1,a4
    2548:	8536                	mv	a0,a3
    254a:	cc16                	sw	t0,24(sp)
    254c:	ca32                	sw	a2,20(sp)
    254e:	c83a                	sw	a4,16(sp)
    2550:	c636                	sw	a3,12(sp)
    2552:	baffd0ef          	jal	ra,100 <__umodsi3>
    2556:	4652                	lw	a2,20(sp)
    2558:	4742                	lw	a4,16(sp)
    255a:	46b2                	lw	a3,12(sp)
    255c:	9532                	add	a0,a0,a2
    255e:	00054583          	lbu	a1,0(a0)
    2562:	14fd                	addi	s1,s1,-1
    2564:	8536                	mv	a0,a3
    2566:	00b48023          	sb	a1,0(s1)
    256a:	85ba                	mv	a1,a4
    256c:	b69fd0ef          	jal	ra,d4 <__udivsi3>
    2570:	46b2                	lw	a3,12(sp)
    2572:	4742                	lw	a4,16(sp)
    2574:	4652                	lw	a2,20(sp)
    2576:	42e2                	lw	t0,24(sp)
    2578:	0ae6fd63          	bgeu	a3,a4,2632 <_printf_i+0x23e>
    257c:	46a1                	li	a3,8
    257e:	00d71e63          	bne	a4,a3,259a <_printf_i+0x1a6>
    2582:	4018                	lw	a4,0(s0)
    2584:	8b05                	andi	a4,a4,1
    2586:	cb11                	beqz	a4,259a <_printf_i+0x1a6>
    2588:	4054                	lw	a3,4(s0)
    258a:	4818                	lw	a4,16(s0)
    258c:	00d74763          	blt	a4,a3,259a <_printf_i+0x1a6>
    2590:	03000713          	li	a4,48
    2594:	fee48fa3          	sb	a4,-1(s1)
    2598:	14fd                	addi	s1,s1,-1
    259a:	409282b3          	sub	t0,t0,s1
    259e:	00542823          	sw	t0,16(s0)
    25a2:	4722                	lw	a4,8(sp)
    25a4:	4692                	lw	a3,4(sp)
    25a6:	4502                	lw	a0,0(sp)
    25a8:	0870                	addi	a2,sp,28
    25aa:	85a2                	mv	a1,s0
    25ac:	d1dff0ef          	jal	ra,22c8 <_printf_common>
    25b0:	577d                	li	a4,-1
    25b2:	0ae51a63          	bne	a0,a4,2666 <_printf_i+0x272>
    25b6:	557d                	li	a0,-1
    25b8:	50a2                	lw	ra,40(sp)
    25ba:	5412                	lw	s0,36(sp)
    25bc:	5482                	lw	s1,32(sp)
    25be:	02c10113          	addi	sp,sp,44
    25c2:	8082                	ret
    25c4:	04c582a3          	sb	a2,69(a1)
    25c8:	00001617          	auipc	a2,0x1
    25cc:	c4060613          	addi	a2,a2,-960 # 3208 <__sf_fake_stdout+0x34>
    25d0:	400c                	lw	a1,0(s0)
    25d2:	4308                	lw	a0,0(a4)
    25d4:	0805f313          	andi	t1,a1,128
    25d8:	4114                	lw	a3,0(a0)
    25da:	0511                	addi	a0,a0,4
    25dc:	02030d63          	beqz	t1,2616 <_printf_i+0x222>
    25e0:	c308                	sw	a0,0(a4)
    25e2:	0015f713          	andi	a4,a1,1
    25e6:	c701                	beqz	a4,25ee <_printf_i+0x1fa>
    25e8:	0205e593          	ori	a1,a1,32
    25ec:	c00c                	sw	a1,0(s0)
    25ee:	4741                	li	a4,16
    25f0:	fe95                	bnez	a3,252c <_printf_i+0x138>
    25f2:	400c                	lw	a1,0(s0)
    25f4:	fdf5f593          	andi	a1,a1,-33
    25f8:	c00c                	sw	a1,0(s0)
    25fa:	bf0d                	j	252c <_printf_i+0x138>
    25fc:	4194                	lw	a3,0(a1)
    25fe:	0206e693          	ori	a3,a3,32
    2602:	c194                	sw	a3,0(a1)
    2604:	07800693          	li	a3,120
    2608:	04d402a3          	sb	a3,69(s0)
    260c:	00001617          	auipc	a2,0x1
    2610:	c1060613          	addi	a2,a2,-1008 # 321c <__sf_fake_stdout+0x48>
    2614:	bf75                	j	25d0 <_printf_i+0x1dc>
    2616:	0405f313          	andi	t1,a1,64
    261a:	c308                	sw	a0,0(a4)
    261c:	fc0303e3          	beqz	t1,25e2 <_printf_i+0x1ee>
    2620:	06c2                	slli	a3,a3,0x10
    2622:	82c1                	srli	a3,a3,0x10
    2624:	bf7d                	j	25e2 <_printf_i+0x1ee>
    2626:	00001617          	auipc	a2,0x1
    262a:	be260613          	addi	a2,a2,-1054 # 3208 <__sf_fake_stdout+0x34>
    262e:	4721                	li	a4,8
    2630:	bdf5                	j	252c <_printf_i+0x138>
    2632:	86aa                	mv	a3,a0
    2634:	bf09                	j	2546 <_printf_i+0x152>
    2636:	4190                	lw	a2,0(a1)
    2638:	4314                	lw	a3,0(a4)
    263a:	49cc                	lw	a1,20(a1)
    263c:	08067313          	andi	t1,a2,128
    2640:	00468513          	addi	a0,a3,4
    2644:	00030663          	beqz	t1,2650 <_printf_i+0x25c>
    2648:	c308                	sw	a0,0(a4)
    264a:	4298                	lw	a4,0(a3)
    264c:	c30c                	sw	a1,0(a4)
    264e:	a801                	j	265e <_printf_i+0x26a>
    2650:	c308                	sw	a0,0(a4)
    2652:	04067613          	andi	a2,a2,64
    2656:	4298                	lw	a4,0(a3)
    2658:	da75                	beqz	a2,264c <_printf_i+0x258>
    265a:	00b71023          	sh	a1,0(a4)
    265e:	00042823          	sw	zero,16(s0)
    2662:	8496                	mv	s1,t0
    2664:	bf3d                	j	25a2 <_printf_i+0x1ae>
    2666:	4814                	lw	a3,16(s0)
    2668:	4592                	lw	a1,4(sp)
    266a:	4502                	lw	a0,0(sp)
    266c:	47a2                	lw	a5,8(sp)
    266e:	8626                	mv	a2,s1
    2670:	9782                	jalr	a5
    2672:	577d                	li	a4,-1
    2674:	f4e501e3          	beq	a0,a4,25b6 <_printf_i+0x1c2>
    2678:	4018                	lw	a4,0(s0)
    267a:	8b09                	andi	a4,a4,2
    267c:	eb1d                	bnez	a4,26b2 <_printf_i+0x2be>
    267e:	4772                	lw	a4,28(sp)
    2680:	4448                	lw	a0,12(s0)
    2682:	f2e55be3          	bge	a0,a4,25b8 <_printf_i+0x1c4>
    2686:	853a                	mv	a0,a4
    2688:	bf05                	j	25b8 <_printf_i+0x1c4>
    268a:	4592                	lw	a1,4(sp)
    268c:	4502                	lw	a0,0(sp)
    268e:	47a2                	lw	a5,8(sp)
    2690:	4685                	li	a3,1
    2692:	861a                	mv	a2,t1
    2694:	c83a                	sw	a4,16(sp)
    2696:	c61a                	sw	t1,12(sp)
    2698:	9782                	jalr	a5
    269a:	56fd                	li	a3,-1
    269c:	f0d50de3          	beq	a0,a3,25b6 <_printf_i+0x1c2>
    26a0:	4742                	lw	a4,16(sp)
    26a2:	4332                	lw	t1,12(sp)
    26a4:	0705                	addi	a4,a4,1
    26a6:	4454                	lw	a3,12(s0)
    26a8:	4672                	lw	a2,28(sp)
    26aa:	8e91                	sub	a3,a3,a2
    26ac:	fcd74fe3          	blt	a4,a3,268a <_printf_i+0x296>
    26b0:	b7f9                	j	267e <_printf_i+0x28a>
    26b2:	4701                	li	a4,0
    26b4:	01940313          	addi	t1,s0,25
    26b8:	b7fd                	j	26a6 <_printf_i+0x2b2>

000026ba <_sbrk_r>:
    26ba:	1151                	addi	sp,sp,-12
    26bc:	c222                	sw	s0,4(sp)
    26be:	842a                	mv	s0,a0
    26c0:	852e                	mv	a0,a1
    26c2:	8801a823          	sw	zero,-1904(gp) # 20000130 <errno>
    26c6:	c406                	sw	ra,8(sp)
    26c8:	b72ff0ef          	jal	ra,1a3a <_sbrk>
    26cc:	57fd                	li	a5,-1
    26ce:	00f51763          	bne	a0,a5,26dc <_sbrk_r+0x22>
    26d2:	89018793          	addi	a5,gp,-1904 # 20000130 <errno>
    26d6:	439c                	lw	a5,0(a5)
    26d8:	c391                	beqz	a5,26dc <_sbrk_r+0x22>
    26da:	c01c                	sw	a5,0(s0)
    26dc:	40a2                	lw	ra,8(sp)
    26de:	4412                	lw	s0,4(sp)
    26e0:	0131                	addi	sp,sp,12
    26e2:	8082                	ret

000026e4 <__sread>:
    26e4:	1151                	addi	sp,sp,-12
    26e6:	c222                	sw	s0,4(sp)
    26e8:	842e                	mv	s0,a1
    26ea:	00e59583          	lh	a1,14(a1)
    26ee:	c406                	sw	ra,8(sp)
    26f0:	2d8d                	jal	2d62 <_read_r>
    26f2:	00054963          	bltz	a0,2704 <__sread+0x20>
    26f6:	487c                	lw	a5,84(s0)
    26f8:	97aa                	add	a5,a5,a0
    26fa:	c87c                	sw	a5,84(s0)
    26fc:	40a2                	lw	ra,8(sp)
    26fe:	4412                	lw	s0,4(sp)
    2700:	0131                	addi	sp,sp,12
    2702:	8082                	ret
    2704:	00c45783          	lhu	a5,12(s0)
    2708:	777d                	lui	a4,0xfffff
    270a:	177d                	addi	a4,a4,-1
    270c:	8ff9                	and	a5,a5,a4
    270e:	00f41623          	sh	a5,12(s0)
    2712:	b7ed                	j	26fc <__sread+0x18>

00002714 <__swrite>:
    2714:	00c5d783          	lhu	a5,12(a1)
    2718:	1131                	addi	sp,sp,-20
    271a:	c622                	sw	s0,12(sp)
    271c:	c426                	sw	s1,8(sp)
    271e:	c806                	sw	ra,16(sp)
    2720:	1007f793          	andi	a5,a5,256
    2724:	84aa                	mv	s1,a0
    2726:	842e                	mv	s0,a1
    2728:	8332                	mv	t1,a2
    272a:	82b6                	mv	t0,a3
    272c:	cb91                	beqz	a5,2740 <__swrite+0x2c>
    272e:	00e59583          	lh	a1,14(a1)
    2732:	c236                	sw	a3,4(sp)
    2734:	c032                	sw	a2,0(sp)
    2736:	4689                	li	a3,2
    2738:	4601                	li	a2,0
    273a:	2915                	jal	2b6e <_lseek_r>
    273c:	4292                	lw	t0,4(sp)
    273e:	4302                	lw	t1,0(sp)
    2740:	00c45783          	lhu	a5,12(s0)
    2744:	777d                	lui	a4,0xfffff
    2746:	177d                	addi	a4,a4,-1
    2748:	8ff9                	and	a5,a5,a4
    274a:	00f41623          	sh	a5,12(s0)
    274e:	00e41583          	lh	a1,14(s0)
    2752:	4432                	lw	s0,12(sp)
    2754:	40c2                	lw	ra,16(sp)
    2756:	8526                	mv	a0,s1
    2758:	44a2                	lw	s1,8(sp)
    275a:	8696                	mv	a3,t0
    275c:	861a                	mv	a2,t1
    275e:	0151                	addi	sp,sp,20
    2760:	a221                	j	2868 <_write_r>

00002762 <__sseek>:
    2762:	1151                	addi	sp,sp,-12
    2764:	c222                	sw	s0,4(sp)
    2766:	842e                	mv	s0,a1
    2768:	00e59583          	lh	a1,14(a1)
    276c:	c406                	sw	ra,8(sp)
    276e:	2101                	jal	2b6e <_lseek_r>
    2770:	57fd                	li	a5,-1
    2772:	00c45703          	lhu	a4,12(s0)
    2776:	00f51b63          	bne	a0,a5,278c <__sseek+0x2a>
    277a:	77fd                	lui	a5,0xfffff
    277c:	17fd                	addi	a5,a5,-1
    277e:	8ff9                	and	a5,a5,a4
    2780:	00f41623          	sh	a5,12(s0)
    2784:	40a2                	lw	ra,8(sp)
    2786:	4412                	lw	s0,4(sp)
    2788:	0131                	addi	sp,sp,12
    278a:	8082                	ret
    278c:	6785                	lui	a5,0x1
    278e:	8fd9                	or	a5,a5,a4
    2790:	00f41623          	sh	a5,12(s0)
    2794:	c868                	sw	a0,84(s0)
    2796:	b7fd                	j	2784 <__sseek+0x22>

00002798 <__sclose>:
    2798:	00e59583          	lh	a1,14(a1)
    279c:	a439                	j	29aa <_close_r>

0000279e <__swbuf_r>:
    279e:	1131                	addi	sp,sp,-20
    27a0:	c622                	sw	s0,12(sp)
    27a2:	c426                	sw	s1,8(sp)
    27a4:	c806                	sw	ra,16(sp)
    27a6:	87aa                	mv	a5,a0
    27a8:	84ae                	mv	s1,a1
    27aa:	8432                	mv	s0,a2
    27ac:	c519                	beqz	a0,27ba <__swbuf_r+0x1c>
    27ae:	4d18                	lw	a4,24(a0)
    27b0:	e709                	bnez	a4,27ba <__swbuf_r+0x1c>
    27b2:	c02a                	sw	a0,0(sp)
    27b4:	da0ff0ef          	jal	ra,1d54 <__sinit>
    27b8:	4782                	lw	a5,0(sp)
    27ba:	00001717          	auipc	a4,0x1
    27be:	9fa70713          	addi	a4,a4,-1542 # 31b4 <__sf_fake_stdin>
    27c2:	06e41b63          	bne	s0,a4,2838 <__swbuf_r+0x9a>
    27c6:	43c0                	lw	s0,4(a5)
    27c8:	4c18                	lw	a4,24(s0)
    27ca:	c418                	sw	a4,8(s0)
    27cc:	00c45703          	lhu	a4,12(s0)
    27d0:	8b21                	andi	a4,a4,8
    27d2:	c359                	beqz	a4,2858 <__swbuf_r+0xba>
    27d4:	4818                	lw	a4,16(s0)
    27d6:	c349                	beqz	a4,2858 <__swbuf_r+0xba>
    27d8:	4818                	lw	a4,16(s0)
    27da:	4008                	lw	a0,0(s0)
    27dc:	0ff4f693          	andi	a3,s1,255
    27e0:	0ff4f493          	andi	s1,s1,255
    27e4:	8d19                	sub	a0,a0,a4
    27e6:	4858                	lw	a4,20(s0)
    27e8:	00e54a63          	blt	a0,a4,27fc <__swbuf_r+0x5e>
    27ec:	853e                	mv	a0,a5
    27ee:	85a2                	mv	a1,s0
    27f0:	c236                	sw	a3,4(sp)
    27f2:	c03e                	sw	a5,0(sp)
    27f4:	2e09                	jal	2b06 <_fflush_r>
    27f6:	4782                	lw	a5,0(sp)
    27f8:	4692                	lw	a3,4(sp)
    27fa:	e52d                	bnez	a0,2864 <__swbuf_r+0xc6>
    27fc:	4418                	lw	a4,8(s0)
    27fe:	0505                	addi	a0,a0,1
    2800:	177d                	addi	a4,a4,-1
    2802:	c418                	sw	a4,8(s0)
    2804:	4018                	lw	a4,0(s0)
    2806:	00170613          	addi	a2,a4,1
    280a:	c010                	sw	a2,0(s0)
    280c:	00d70023          	sb	a3,0(a4)
    2810:	4858                	lw	a4,20(s0)
    2812:	00a70963          	beq	a4,a0,2824 <__swbuf_r+0x86>
    2816:	00c45703          	lhu	a4,12(s0)
    281a:	8b05                	andi	a4,a4,1
    281c:	cb01                	beqz	a4,282c <__swbuf_r+0x8e>
    281e:	4729                	li	a4,10
    2820:	00e49663          	bne	s1,a4,282c <__swbuf_r+0x8e>
    2824:	85a2                	mv	a1,s0
    2826:	853e                	mv	a0,a5
    2828:	2cf9                	jal	2b06 <_fflush_r>
    282a:	ed0d                	bnez	a0,2864 <__swbuf_r+0xc6>
    282c:	40c2                	lw	ra,16(sp)
    282e:	4432                	lw	s0,12(sp)
    2830:	8526                	mv	a0,s1
    2832:	44a2                	lw	s1,8(sp)
    2834:	0151                	addi	sp,sp,20
    2836:	8082                	ret
    2838:	00001717          	auipc	a4,0x1
    283c:	99c70713          	addi	a4,a4,-1636 # 31d4 <__sf_fake_stdout>
    2840:	00e41463          	bne	s0,a4,2848 <__swbuf_r+0xaa>
    2844:	4780                	lw	s0,8(a5)
    2846:	b749                	j	27c8 <__swbuf_r+0x2a>
    2848:	00001717          	auipc	a4,0x1
    284c:	94c70713          	addi	a4,a4,-1716 # 3194 <__sf_fake_stderr>
    2850:	f6e41ce3          	bne	s0,a4,27c8 <__swbuf_r+0x2a>
    2854:	47c0                	lw	s0,12(a5)
    2856:	bf8d                	j	27c8 <__swbuf_r+0x2a>
    2858:	853e                	mv	a0,a5
    285a:	85a2                	mv	a1,s0
    285c:	c03e                	sw	a5,0(sp)
    285e:	2825                	jal	2896 <__swsetup_r>
    2860:	4782                	lw	a5,0(sp)
    2862:	d93d                	beqz	a0,27d8 <__swbuf_r+0x3a>
    2864:	54fd                	li	s1,-1
    2866:	b7d9                	j	282c <__swbuf_r+0x8e>

00002868 <_write_r>:
    2868:	1151                	addi	sp,sp,-12
    286a:	c222                	sw	s0,4(sp)
    286c:	842a                	mv	s0,a0
    286e:	852e                	mv	a0,a1
    2870:	85b2                	mv	a1,a2
    2872:	8636                	mv	a2,a3
    2874:	8801a823          	sw	zero,-1904(gp) # 20000130 <errno>
    2878:	c406                	sw	ra,8(sp)
    287a:	974ff0ef          	jal	ra,19ee <_write>
    287e:	57fd                	li	a5,-1
    2880:	00f51763          	bne	a0,a5,288e <_write_r+0x26>
    2884:	89018793          	addi	a5,gp,-1904 # 20000130 <errno>
    2888:	439c                	lw	a5,0(a5)
    288a:	c391                	beqz	a5,288e <_write_r+0x26>
    288c:	c01c                	sw	a5,0(s0)
    288e:	40a2                	lw	ra,8(sp)
    2890:	4412                	lw	s0,4(sp)
    2892:	0131                	addi	sp,sp,12
    2894:	8082                	ret

00002896 <__swsetup_r>:
    2896:	1141                	addi	sp,sp,-16
    2898:	1fffe797          	auipc	a5,0x1fffe
    289c:	80878793          	addi	a5,a5,-2040 # 200000a0 <_impure_ptr>
    28a0:	c226                	sw	s1,4(sp)
    28a2:	4384                	lw	s1,0(a5)
    28a4:	c422                	sw	s0,8(sp)
    28a6:	c606                	sw	ra,12(sp)
    28a8:	86aa                	mv	a3,a0
    28aa:	842e                	mv	s0,a1
    28ac:	c881                	beqz	s1,28bc <__swsetup_r+0x26>
    28ae:	4c9c                	lw	a5,24(s1)
    28b0:	e791                	bnez	a5,28bc <__swsetup_r+0x26>
    28b2:	c02a                	sw	a0,0(sp)
    28b4:	8526                	mv	a0,s1
    28b6:	c9eff0ef          	jal	ra,1d54 <__sinit>
    28ba:	4682                	lw	a3,0(sp)
    28bc:	00001797          	auipc	a5,0x1
    28c0:	8f878793          	addi	a5,a5,-1800 # 31b4 <__sf_fake_stdin>
    28c4:	02f41a63          	bne	s0,a5,28f8 <__swsetup_r+0x62>
    28c8:	40c0                	lw	s0,4(s1)
    28ca:	00c41703          	lh	a4,12(s0)
    28ce:	01071793          	slli	a5,a4,0x10
    28d2:	83c1                	srli	a5,a5,0x10
    28d4:	0087f613          	andi	a2,a5,8
    28d8:	ee35                	bnez	a2,2954 <__swsetup_r+0xbe>
    28da:	0107f613          	andi	a2,a5,16
    28de:	ee0d                	bnez	a2,2918 <__swsetup_r+0x82>
    28e0:	47a5                	li	a5,9
    28e2:	c29c                	sw	a5,0(a3)
    28e4:	04076713          	ori	a4,a4,64
    28e8:	00e41623          	sh	a4,12(s0)
    28ec:	557d                	li	a0,-1
    28ee:	40b2                	lw	ra,12(sp)
    28f0:	4422                	lw	s0,8(sp)
    28f2:	4492                	lw	s1,4(sp)
    28f4:	0141                	addi	sp,sp,16
    28f6:	8082                	ret
    28f8:	00001797          	auipc	a5,0x1
    28fc:	8dc78793          	addi	a5,a5,-1828 # 31d4 <__sf_fake_stdout>
    2900:	00f41463          	bne	s0,a5,2908 <__swsetup_r+0x72>
    2904:	4480                	lw	s0,8(s1)
    2906:	b7d1                	j	28ca <__swsetup_r+0x34>
    2908:	00001797          	auipc	a5,0x1
    290c:	88c78793          	addi	a5,a5,-1908 # 3194 <__sf_fake_stderr>
    2910:	faf41de3          	bne	s0,a5,28ca <__swsetup_r+0x34>
    2914:	44c0                	lw	s0,12(s1)
    2916:	bf55                	j	28ca <__swsetup_r+0x34>
    2918:	8b91                	andi	a5,a5,4
    291a:	c79d                	beqz	a5,2948 <__swsetup_r+0xb2>
    291c:	584c                	lw	a1,52(s0)
    291e:	c999                	beqz	a1,2934 <__swsetup_r+0x9e>
    2920:	04440793          	addi	a5,s0,68
    2924:	00f58663          	beq	a1,a5,2930 <__swsetup_r+0x9a>
    2928:	8536                	mv	a0,a3
    292a:	c036                	sw	a3,0(sp)
    292c:	2669                	jal	2cb6 <_free_r>
    292e:	4682                	lw	a3,0(sp)
    2930:	02042a23          	sw	zero,52(s0)
    2934:	00c45783          	lhu	a5,12(s0)
    2938:	00042223          	sw	zero,4(s0)
    293c:	fdb7f793          	andi	a5,a5,-37
    2940:	00f41623          	sh	a5,12(s0)
    2944:	481c                	lw	a5,16(s0)
    2946:	c01c                	sw	a5,0(s0)
    2948:	00c45783          	lhu	a5,12(s0)
    294c:	0087e793          	ori	a5,a5,8
    2950:	00f41623          	sh	a5,12(s0)
    2954:	481c                	lw	a5,16(s0)
    2956:	ef81                	bnez	a5,296e <__swsetup_r+0xd8>
    2958:	00c45783          	lhu	a5,12(s0)
    295c:	20000713          	li	a4,512
    2960:	2807f793          	andi	a5,a5,640
    2964:	00e78563          	beq	a5,a4,296e <__swsetup_r+0xd8>
    2968:	85a2                	mv	a1,s0
    296a:	8536                	mv	a0,a3
    296c:	2c41                	jal	2bfc <__smakebuf_r>
    296e:	00c45783          	lhu	a5,12(s0)
    2972:	0017f713          	andi	a4,a5,1
    2976:	c705                	beqz	a4,299e <__swsetup_r+0x108>
    2978:	485c                	lw	a5,20(s0)
    297a:	00042423          	sw	zero,8(s0)
    297e:	40f007b3          	neg	a5,a5
    2982:	cc1c                	sw	a5,24(s0)
    2984:	481c                	lw	a5,16(s0)
    2986:	4501                	li	a0,0
    2988:	f3bd                	bnez	a5,28ee <__swsetup_r+0x58>
    298a:	00c41783          	lh	a5,12(s0)
    298e:	0807f713          	andi	a4,a5,128
    2992:	df31                	beqz	a4,28ee <__swsetup_r+0x58>
    2994:	0407e793          	ori	a5,a5,64
    2998:	00f41623          	sh	a5,12(s0)
    299c:	bf81                	j	28ec <__swsetup_r+0x56>
    299e:	8b89                	andi	a5,a5,2
    29a0:	4701                	li	a4,0
    29a2:	e391                	bnez	a5,29a6 <__swsetup_r+0x110>
    29a4:	4858                	lw	a4,20(s0)
    29a6:	c418                	sw	a4,8(s0)
    29a8:	bff1                	j	2984 <__swsetup_r+0xee>

000029aa <_close_r>:
    29aa:	1151                	addi	sp,sp,-12
    29ac:	c222                	sw	s0,4(sp)
    29ae:	842a                	mv	s0,a0
    29b0:	852e                	mv	a0,a1
    29b2:	8801a823          	sw	zero,-1904(gp) # 20000130 <errno>
    29b6:	c406                	sw	ra,8(sp)
    29b8:	2125                	jal	2de0 <_close>
    29ba:	57fd                	li	a5,-1
    29bc:	00f51763          	bne	a0,a5,29ca <_close_r+0x20>
    29c0:	89018793          	addi	a5,gp,-1904 # 20000130 <errno>
    29c4:	439c                	lw	a5,0(a5)
    29c6:	c391                	beqz	a5,29ca <_close_r+0x20>
    29c8:	c01c                	sw	a5,0(s0)
    29ca:	40a2                	lw	ra,8(sp)
    29cc:	4412                	lw	s0,4(sp)
    29ce:	0131                	addi	sp,sp,12
    29d0:	8082                	ret

000029d2 <__sflush_r>:
    29d2:	00c5d683          	lhu	a3,12(a1)
    29d6:	1131                	addi	sp,sp,-20
    29d8:	c622                	sw	s0,12(sp)
    29da:	c806                	sw	ra,16(sp)
    29dc:	c426                	sw	s1,8(sp)
    29de:	0086f713          	andi	a4,a3,8
    29e2:	87aa                	mv	a5,a0
    29e4:	842e                	mv	s0,a1
    29e6:	ef69                	bnez	a4,2ac0 <__sflush_r+0xee>
    29e8:	41d8                	lw	a4,4(a1)
    29ea:	00e04b63          	bgtz	a4,2a00 <__sflush_r+0x2e>
    29ee:	41b8                	lw	a4,64(a1)
    29f0:	00e04863          	bgtz	a4,2a00 <__sflush_r+0x2e>
    29f4:	4501                	li	a0,0
    29f6:	40c2                	lw	ra,16(sp)
    29f8:	4432                	lw	s0,12(sp)
    29fa:	44a2                	lw	s1,8(sp)
    29fc:	0151                	addi	sp,sp,20
    29fe:	8082                	ret
    2a00:	5458                	lw	a4,44(s0)
    2a02:	db6d                	beqz	a4,29f4 <__sflush_r+0x22>
    2a04:	4384                	lw	s1,0(a5)
    2a06:	01369613          	slli	a2,a3,0x13
    2a0a:	0007a023          	sw	zero,0(a5)
    2a0e:	06065e63          	bgez	a2,2a8a <__sflush_r+0xb8>
    2a12:	4870                	lw	a2,84(s0)
    2a14:	00c45703          	lhu	a4,12(s0)
    2a18:	8b11                	andi	a4,a4,4
    2a1a:	c719                	beqz	a4,2a28 <__sflush_r+0x56>
    2a1c:	4058                	lw	a4,4(s0)
    2a1e:	8e19                	sub	a2,a2,a4
    2a20:	5858                	lw	a4,52(s0)
    2a22:	c319                	beqz	a4,2a28 <__sflush_r+0x56>
    2a24:	4038                	lw	a4,64(s0)
    2a26:	8e19                	sub	a2,a2,a4
    2a28:	5458                	lw	a4,44(s0)
    2a2a:	500c                	lw	a1,32(s0)
    2a2c:	4681                	li	a3,0
    2a2e:	853e                	mv	a0,a5
    2a30:	c03e                	sw	a5,0(sp)
    2a32:	9702                	jalr	a4
    2a34:	577d                	li	a4,-1
    2a36:	00c45683          	lhu	a3,12(s0)
    2a3a:	4782                	lw	a5,0(sp)
    2a3c:	00e51d63          	bne	a0,a4,2a56 <__sflush_r+0x84>
    2a40:	4390                	lw	a2,0(a5)
    2a42:	4775                	li	a4,29
    2a44:	06c76863          	bltu	a4,a2,2ab4 <__sflush_r+0xe2>
    2a48:	20400737          	lui	a4,0x20400
    2a4c:	0705                	addi	a4,a4,1
    2a4e:	00c75733          	srl	a4,a4,a2
    2a52:	8b05                	andi	a4,a4,1
    2a54:	c325                	beqz	a4,2ab4 <__sflush_r+0xe2>
    2a56:	4818                	lw	a4,16(s0)
    2a58:	00042223          	sw	zero,4(s0)
    2a5c:	c018                	sw	a4,0(s0)
    2a5e:	01369713          	slli	a4,a3,0x13
    2a62:	00075863          	bgez	a4,2a72 <__sflush_r+0xa0>
    2a66:	577d                	li	a4,-1
    2a68:	00e51463          	bne	a0,a4,2a70 <__sflush_r+0x9e>
    2a6c:	4398                	lw	a4,0(a5)
    2a6e:	e311                	bnez	a4,2a72 <__sflush_r+0xa0>
    2a70:	c868                	sw	a0,84(s0)
    2a72:	584c                	lw	a1,52(s0)
    2a74:	c384                	sw	s1,0(a5)
    2a76:	ddbd                	beqz	a1,29f4 <__sflush_r+0x22>
    2a78:	04440713          	addi	a4,s0,68
    2a7c:	00e58463          	beq	a1,a4,2a84 <__sflush_r+0xb2>
    2a80:	853e                	mv	a0,a5
    2a82:	2c15                	jal	2cb6 <_free_r>
    2a84:	02042a23          	sw	zero,52(s0)
    2a88:	b7b5                	j	29f4 <__sflush_r+0x22>
    2a8a:	500c                	lw	a1,32(s0)
    2a8c:	4601                	li	a2,0
    2a8e:	853e                	mv	a0,a5
    2a90:	4685                	li	a3,1
    2a92:	c03e                	sw	a5,0(sp)
    2a94:	9702                	jalr	a4
    2a96:	577d                	li	a4,-1
    2a98:	862a                	mv	a2,a0
    2a9a:	4782                	lw	a5,0(sp)
    2a9c:	f6e51ce3          	bne	a0,a4,2a14 <__sflush_r+0x42>
    2aa0:	4398                	lw	a4,0(a5)
    2aa2:	db2d                	beqz	a4,2a14 <__sflush_r+0x42>
    2aa4:	46f5                	li	a3,29
    2aa6:	00d70563          	beq	a4,a3,2ab0 <__sflush_r+0xde>
    2aaa:	46d9                	li	a3,22
    2aac:	04d71363          	bne	a4,a3,2af2 <__sflush_r+0x120>
    2ab0:	c384                	sw	s1,0(a5)
    2ab2:	b789                	j	29f4 <__sflush_r+0x22>
    2ab4:	0406e693          	ori	a3,a3,64
    2ab8:	00d41623          	sh	a3,12(s0)
    2abc:	557d                	li	a0,-1
    2abe:	bf25                	j	29f6 <__sflush_r+0x24>
    2ac0:	4998                	lw	a4,16(a1)
    2ac2:	db0d                	beqz	a4,29f4 <__sflush_r+0x22>
    2ac4:	4184                	lw	s1,0(a1)
    2ac6:	8a8d                	andi	a3,a3,3
    2ac8:	c198                	sw	a4,0(a1)
    2aca:	8c99                	sub	s1,s1,a4
    2acc:	4601                	li	a2,0
    2ace:	e291                	bnez	a3,2ad2 <__sflush_r+0x100>
    2ad0:	49d0                	lw	a2,20(a1)
    2ad2:	c410                	sw	a2,8(s0)
    2ad4:	f29050e3          	blez	s1,29f4 <__sflush_r+0x22>
    2ad8:	02842303          	lw	t1,40(s0)
    2adc:	500c                	lw	a1,32(s0)
    2ade:	863a                	mv	a2,a4
    2ae0:	853e                	mv	a0,a5
    2ae2:	86a6                	mv	a3,s1
    2ae4:	c23a                	sw	a4,4(sp)
    2ae6:	c03e                	sw	a5,0(sp)
    2ae8:	9302                	jalr	t1
    2aea:	4782                	lw	a5,0(sp)
    2aec:	4712                	lw	a4,4(sp)
    2aee:	00a04963          	bgtz	a0,2b00 <__sflush_r+0x12e>
    2af2:	00c45783          	lhu	a5,12(s0)
    2af6:	0407e793          	ori	a5,a5,64
    2afa:	00f41623          	sh	a5,12(s0)
    2afe:	bf7d                	j	2abc <__sflush_r+0xea>
    2b00:	972a                	add	a4,a4,a0
    2b02:	8c89                	sub	s1,s1,a0
    2b04:	bfc1                	j	2ad4 <__sflush_r+0x102>

00002b06 <_fflush_r>:
    2b06:	499c                	lw	a5,16(a1)
    2b08:	c3ad                	beqz	a5,2b6a <_fflush_r+0x64>
    2b0a:	1141                	addi	sp,sp,-16
    2b0c:	c422                	sw	s0,8(sp)
    2b0e:	c606                	sw	ra,12(sp)
    2b10:	842a                	mv	s0,a0
    2b12:	c519                	beqz	a0,2b20 <_fflush_r+0x1a>
    2b14:	4d1c                	lw	a5,24(a0)
    2b16:	e789                	bnez	a5,2b20 <_fflush_r+0x1a>
    2b18:	c02e                	sw	a1,0(sp)
    2b1a:	a3aff0ef          	jal	ra,1d54 <__sinit>
    2b1e:	4582                	lw	a1,0(sp)
    2b20:	00000797          	auipc	a5,0x0
    2b24:	69478793          	addi	a5,a5,1684 # 31b4 <__sf_fake_stdin>
    2b28:	00f59c63          	bne	a1,a5,2b40 <_fflush_r+0x3a>
    2b2c:	404c                	lw	a1,4(s0)
    2b2e:	00c59783          	lh	a5,12(a1)
    2b32:	c79d                	beqz	a5,2b60 <_fflush_r+0x5a>
    2b34:	8522                	mv	a0,s0
    2b36:	4422                	lw	s0,8(sp)
    2b38:	40b2                	lw	ra,12(sp)
    2b3a:	0141                	addi	sp,sp,16
    2b3c:	e97ff06f          	j	29d2 <__sflush_r>
    2b40:	00000797          	auipc	a5,0x0
    2b44:	69478793          	addi	a5,a5,1684 # 31d4 <__sf_fake_stdout>
    2b48:	00f59463          	bne	a1,a5,2b50 <_fflush_r+0x4a>
    2b4c:	440c                	lw	a1,8(s0)
    2b4e:	b7c5                	j	2b2e <_fflush_r+0x28>
    2b50:	00000797          	auipc	a5,0x0
    2b54:	64478793          	addi	a5,a5,1604 # 3194 <__sf_fake_stderr>
    2b58:	fcf59be3          	bne	a1,a5,2b2e <_fflush_r+0x28>
    2b5c:	444c                	lw	a1,12(s0)
    2b5e:	bfc1                	j	2b2e <_fflush_r+0x28>
    2b60:	40b2                	lw	ra,12(sp)
    2b62:	4422                	lw	s0,8(sp)
    2b64:	4501                	li	a0,0
    2b66:	0141                	addi	sp,sp,16
    2b68:	8082                	ret
    2b6a:	4501                	li	a0,0
    2b6c:	8082                	ret

00002b6e <_lseek_r>:
    2b6e:	1151                	addi	sp,sp,-12
    2b70:	c222                	sw	s0,4(sp)
    2b72:	842a                	mv	s0,a0
    2b74:	852e                	mv	a0,a1
    2b76:	85b2                	mv	a1,a2
    2b78:	8636                	mv	a2,a3
    2b7a:	8801a823          	sw	zero,-1904(gp) # 20000130 <errno>
    2b7e:	c406                	sw	ra,8(sp)
    2b80:	2c71                	jal	2e1c <_lseek>
    2b82:	57fd                	li	a5,-1
    2b84:	00f51763          	bne	a0,a5,2b92 <_lseek_r+0x24>
    2b88:	89018793          	addi	a5,gp,-1904 # 20000130 <errno>
    2b8c:	439c                	lw	a5,0(a5)
    2b8e:	c391                	beqz	a5,2b92 <_lseek_r+0x24>
    2b90:	c01c                	sw	a5,0(s0)
    2b92:	40a2                	lw	ra,8(sp)
    2b94:	4412                	lw	s0,4(sp)
    2b96:	0131                	addi	sp,sp,12
    2b98:	8082                	ret

00002b9a <__swhatbuf_r>:
    2b9a:	87ae                	mv	a5,a1
    2b9c:	00e59583          	lh	a1,14(a1)
    2ba0:	7159                	addi	sp,sp,-112
    2ba2:	d2a6                	sw	s1,100(sp)
    2ba4:	d686                	sw	ra,108(sp)
    2ba6:	d4a2                	sw	s0,104(sp)
    2ba8:	84b2                	mv	s1,a2
    2baa:	0005dc63          	bgez	a1,2bc2 <__swhatbuf_r+0x28>
    2bae:	00c7d783          	lhu	a5,12(a5)
    2bb2:	0006a023          	sw	zero,0(a3)
    2bb6:	0807f793          	andi	a5,a5,128
    2bba:	eb85                	bnez	a5,2bea <__swhatbuf_r+0x50>
    2bbc:	40000793          	li	a5,1024
    2bc0:	a03d                	j	2bee <__swhatbuf_r+0x54>
    2bc2:	00f10413          	addi	s0,sp,15
    2bc6:	9861                	andi	s0,s0,-8
    2bc8:	8622                	mv	a2,s0
    2bca:	c236                	sw	a3,4(sp)
    2bcc:	c03e                	sw	a5,0(sp)
    2bce:	22c1                	jal	2d8e <_fstat_r>
    2bd0:	4782                	lw	a5,0(sp)
    2bd2:	4692                	lw	a3,4(sp)
    2bd4:	fc054de3          	bltz	a0,2bae <__swhatbuf_r+0x14>
    2bd8:	4058                	lw	a4,4(s0)
    2bda:	67bd                	lui	a5,0xf
    2bdc:	8ff9                	and	a5,a5,a4
    2bde:	7779                	lui	a4,0xffffe
    2be0:	97ba                	add	a5,a5,a4
    2be2:	0017b793          	seqz	a5,a5
    2be6:	c29c                	sw	a5,0(a3)
    2be8:	bfd1                	j	2bbc <__swhatbuf_r+0x22>
    2bea:	04000793          	li	a5,64
    2bee:	50b6                	lw	ra,108(sp)
    2bf0:	5426                	lw	s0,104(sp)
    2bf2:	c09c                	sw	a5,0(s1)
    2bf4:	4501                	li	a0,0
    2bf6:	5496                	lw	s1,100(sp)
    2bf8:	6165                	addi	sp,sp,112
    2bfa:	8082                	ret

00002bfc <__smakebuf_r>:
    2bfc:	00c5d703          	lhu	a4,12(a1)
    2c00:	1121                	addi	sp,sp,-24
    2c02:	c822                	sw	s0,16(sp)
    2c04:	ca06                	sw	ra,20(sp)
    2c06:	c626                	sw	s1,12(sp)
    2c08:	8b09                	andi	a4,a4,2
    2c0a:	842e                	mv	s0,a1
    2c0c:	cf01                	beqz	a4,2c24 <__smakebuf_r+0x28>
    2c0e:	04740793          	addi	a5,s0,71
    2c12:	c01c                	sw	a5,0(s0)
    2c14:	c81c                	sw	a5,16(s0)
    2c16:	4785                	li	a5,1
    2c18:	c85c                	sw	a5,20(s0)
    2c1a:	40d2                	lw	ra,20(sp)
    2c1c:	4442                	lw	s0,16(sp)
    2c1e:	44b2                	lw	s1,12(sp)
    2c20:	0161                	addi	sp,sp,24
    2c22:	8082                	ret
    2c24:	0034                	addi	a3,sp,8
    2c26:	0050                	addi	a2,sp,4
    2c28:	84aa                	mv	s1,a0
    2c2a:	3f85                	jal	2b9a <__swhatbuf_r>
    2c2c:	4592                	lw	a1,4(sp)
    2c2e:	c02a                	sw	a0,0(sp)
    2c30:	8526                	mv	a0,s1
    2c32:	a8aff0ef          	jal	ra,1ebc <_malloc_r>
    2c36:	ed01                	bnez	a0,2c4e <__smakebuf_r+0x52>
    2c38:	00c41783          	lh	a5,12(s0)
    2c3c:	2007f713          	andi	a4,a5,512
    2c40:	ff69                	bnez	a4,2c1a <__smakebuf_r+0x1e>
    2c42:	9bf1                	andi	a5,a5,-4
    2c44:	0027e793          	ori	a5,a5,2
    2c48:	00f41623          	sh	a5,12(s0)
    2c4c:	b7c9                	j	2c0e <__smakebuf_r+0x12>
    2c4e:	fffff717          	auipc	a4,0xfffff
    2c52:	0b470713          	addi	a4,a4,180 # 1d02 <_cleanup_r>
    2c56:	d498                	sw	a4,40(s1)
    2c58:	00c45703          	lhu	a4,12(s0)
    2c5c:	c008                	sw	a0,0(s0)
    2c5e:	c808                	sw	a0,16(s0)
    2c60:	08076713          	ori	a4,a4,128
    2c64:	00e41623          	sh	a4,12(s0)
    2c68:	4712                	lw	a4,4(sp)
    2c6a:	c858                	sw	a4,20(s0)
    2c6c:	4722                	lw	a4,8(sp)
    2c6e:	cf09                	beqz	a4,2c88 <__smakebuf_r+0x8c>
    2c70:	00e41583          	lh	a1,14(s0)
    2c74:	8526                	mv	a0,s1
    2c76:	2289                	jal	2db8 <_isatty_r>
    2c78:	c901                	beqz	a0,2c88 <__smakebuf_r+0x8c>
    2c7a:	00c45783          	lhu	a5,12(s0)
    2c7e:	9bf1                	andi	a5,a5,-4
    2c80:	0017e793          	ori	a5,a5,1
    2c84:	00f41623          	sh	a5,12(s0)
    2c88:	00c45783          	lhu	a5,12(s0)
    2c8c:	4702                	lw	a4,0(sp)
    2c8e:	00f764b3          	or	s1,a4,a5
    2c92:	00941623          	sh	s1,12(s0)
    2c96:	b751                	j	2c1a <__smakebuf_r+0x1e>

00002c98 <memchr>:
    2c98:	0ff5f593          	andi	a1,a1,255
    2c9c:	962a                	add	a2,a2,a0
    2c9e:	00c51463          	bne	a0,a2,2ca6 <memchr+0xe>
    2ca2:	4501                	li	a0,0
    2ca4:	8082                	ret
    2ca6:	00054783          	lbu	a5,0(a0)
    2caa:	feb78de3          	beq	a5,a1,2ca4 <memchr+0xc>
    2cae:	0505                	addi	a0,a0,1
    2cb0:	b7fd                	j	2c9e <memchr+0x6>

00002cb2 <__malloc_lock>:
    2cb2:	8082                	ret

00002cb4 <__malloc_unlock>:
    2cb4:	8082                	ret

00002cb6 <_free_r>:
    2cb6:	c5cd                	beqz	a1,2d60 <_free_r+0xaa>
    2cb8:	ffc5a783          	lw	a5,-4(a1)
    2cbc:	1151                	addi	sp,sp,-12
    2cbe:	c222                	sw	s0,4(sp)
    2cc0:	c406                	sw	ra,8(sp)
    2cc2:	c026                	sw	s1,0(sp)
    2cc4:	ffc58413          	addi	s0,a1,-4
    2cc8:	0007d363          	bgez	a5,2cce <_free_r+0x18>
    2ccc:	943e                	add	s0,s0,a5
    2cce:	84aa                	mv	s1,a0
    2cd0:	37cd                	jal	2cb2 <__malloc_lock>
    2cd2:	1fffd797          	auipc	a5,0x1fffd
    2cd6:	3de78793          	addi	a5,a5,990 # 200000b0 <__malloc_free_list>
    2cda:	439c                	lw	a5,0(a5)
    2cdc:	ef89                	bnez	a5,2cf6 <_free_r+0x40>
    2cde:	00042223          	sw	zero,4(s0)
    2ce2:	1fffd797          	auipc	a5,0x1fffd
    2ce6:	3c87a723          	sw	s0,974(a5) # 200000b0 <__malloc_free_list>
    2cea:	4412                	lw	s0,4(sp)
    2cec:	40a2                	lw	ra,8(sp)
    2cee:	8526                	mv	a0,s1
    2cf0:	4482                	lw	s1,0(sp)
    2cf2:	0131                	addi	sp,sp,12
    2cf4:	b7c1                	j	2cb4 <__malloc_unlock>
    2cf6:	00f47e63          	bgeu	s0,a5,2d12 <_free_r+0x5c>
    2cfa:	4014                	lw	a3,0(s0)
    2cfc:	00d40733          	add	a4,s0,a3
    2d00:	00e79663          	bne	a5,a4,2d0c <_free_r+0x56>
    2d04:	4398                	lw	a4,0(a5)
    2d06:	43dc                	lw	a5,4(a5)
    2d08:	9736                	add	a4,a4,a3
    2d0a:	c018                	sw	a4,0(s0)
    2d0c:	c05c                	sw	a5,4(s0)
    2d0e:	bfd1                	j	2ce2 <_free_r+0x2c>
    2d10:	87ba                	mv	a5,a4
    2d12:	43d8                	lw	a4,4(a5)
    2d14:	c319                	beqz	a4,2d1a <_free_r+0x64>
    2d16:	fee47de3          	bgeu	s0,a4,2d10 <_free_r+0x5a>
    2d1a:	4394                	lw	a3,0(a5)
    2d1c:	00d78633          	add	a2,a5,a3
    2d20:	00861f63          	bne	a2,s0,2d3e <_free_r+0x88>
    2d24:	4010                	lw	a2,0(s0)
    2d26:	96b2                	add	a3,a3,a2
    2d28:	c394                	sw	a3,0(a5)
    2d2a:	00d78633          	add	a2,a5,a3
    2d2e:	fac71ee3          	bne	a4,a2,2cea <_free_r+0x34>
    2d32:	4310                	lw	a2,0(a4)
    2d34:	4358                	lw	a4,4(a4)
    2d36:	96b2                	add	a3,a3,a2
    2d38:	c394                	sw	a3,0(a5)
    2d3a:	c3d8                	sw	a4,4(a5)
    2d3c:	b77d                	j	2cea <_free_r+0x34>
    2d3e:	00c47563          	bgeu	s0,a2,2d48 <_free_r+0x92>
    2d42:	47b1                	li	a5,12
    2d44:	c09c                	sw	a5,0(s1)
    2d46:	b755                	j	2cea <_free_r+0x34>
    2d48:	4010                	lw	a2,0(s0)
    2d4a:	00c406b3          	add	a3,s0,a2
    2d4e:	00d71663          	bne	a4,a3,2d5a <_free_r+0xa4>
    2d52:	4314                	lw	a3,0(a4)
    2d54:	4358                	lw	a4,4(a4)
    2d56:	96b2                	add	a3,a3,a2
    2d58:	c014                	sw	a3,0(s0)
    2d5a:	c058                	sw	a4,4(s0)
    2d5c:	c3c0                	sw	s0,4(a5)
    2d5e:	b771                	j	2cea <_free_r+0x34>
    2d60:	8082                	ret

00002d62 <_read_r>:
    2d62:	1151                	addi	sp,sp,-12
    2d64:	c222                	sw	s0,4(sp)
    2d66:	842a                	mv	s0,a0
    2d68:	852e                	mv	a0,a1
    2d6a:	85b2                	mv	a1,a2
    2d6c:	8636                	mv	a2,a3
    2d6e:	8801a823          	sw	zero,-1904(gp) # 20000130 <errno>
    2d72:	c406                	sw	ra,8(sp)
    2d74:	2855                	jal	2e28 <_read>
    2d76:	57fd                	li	a5,-1
    2d78:	00f51763          	bne	a0,a5,2d86 <_read_r+0x24>
    2d7c:	89018793          	addi	a5,gp,-1904 # 20000130 <errno>
    2d80:	439c                	lw	a5,0(a5)
    2d82:	c391                	beqz	a5,2d86 <_read_r+0x24>
    2d84:	c01c                	sw	a5,0(s0)
    2d86:	40a2                	lw	ra,8(sp)
    2d88:	4412                	lw	s0,4(sp)
    2d8a:	0131                	addi	sp,sp,12
    2d8c:	8082                	ret

00002d8e <_fstat_r>:
    2d8e:	1151                	addi	sp,sp,-12
    2d90:	c222                	sw	s0,4(sp)
    2d92:	842a                	mv	s0,a0
    2d94:	852e                	mv	a0,a1
    2d96:	85b2                	mv	a1,a2
    2d98:	8801a823          	sw	zero,-1904(gp) # 20000130 <errno>
    2d9c:	c406                	sw	ra,8(sp)
    2d9e:	20b9                	jal	2dec <_fstat>
    2da0:	57fd                	li	a5,-1
    2da2:	00f51763          	bne	a0,a5,2db0 <_fstat_r+0x22>
    2da6:	89018793          	addi	a5,gp,-1904 # 20000130 <errno>
    2daa:	439c                	lw	a5,0(a5)
    2dac:	c391                	beqz	a5,2db0 <_fstat_r+0x22>
    2dae:	c01c                	sw	a5,0(s0)
    2db0:	40a2                	lw	ra,8(sp)
    2db2:	4412                	lw	s0,4(sp)
    2db4:	0131                	addi	sp,sp,12
    2db6:	8082                	ret

00002db8 <_isatty_r>:
    2db8:	1151                	addi	sp,sp,-12
    2dba:	c222                	sw	s0,4(sp)
    2dbc:	842a                	mv	s0,a0
    2dbe:	852e                	mv	a0,a1
    2dc0:	8801a823          	sw	zero,-1904(gp) # 20000130 <errno>
    2dc4:	c406                	sw	ra,8(sp)
    2dc6:	283d                	jal	2e04 <_isatty>
    2dc8:	57fd                	li	a5,-1
    2dca:	00f51763          	bne	a0,a5,2dd8 <_isatty_r+0x20>
    2dce:	89018793          	addi	a5,gp,-1904 # 20000130 <errno>
    2dd2:	439c                	lw	a5,0(a5)
    2dd4:	c391                	beqz	a5,2dd8 <_isatty_r+0x20>
    2dd6:	c01c                	sw	a5,0(s0)
    2dd8:	40a2                	lw	ra,8(sp)
    2dda:	4412                	lw	s0,4(sp)
    2ddc:	0131                	addi	sp,sp,12
    2dde:	8082                	ret

00002de0 <_close>:
    2de0:	05800793          	li	a5,88
    2de4:	88f1a823          	sw	a5,-1904(gp) # 20000130 <errno>
    2de8:	557d                	li	a0,-1
    2dea:	8082                	ret

00002dec <_fstat>:
    2dec:	05800793          	li	a5,88
    2df0:	88f1a823          	sw	a5,-1904(gp) # 20000130 <errno>
    2df4:	557d                	li	a0,-1
    2df6:	8082                	ret

00002df8 <_getpid>:
    2df8:	05800793          	li	a5,88
    2dfc:	88f1a823          	sw	a5,-1904(gp) # 20000130 <errno>
    2e00:	557d                	li	a0,-1
    2e02:	8082                	ret

00002e04 <_isatty>:
    2e04:	05800793          	li	a5,88
    2e08:	88f1a823          	sw	a5,-1904(gp) # 20000130 <errno>
    2e0c:	4501                	li	a0,0
    2e0e:	8082                	ret

00002e10 <_kill>:
    2e10:	05800793          	li	a5,88
    2e14:	88f1a823          	sw	a5,-1904(gp) # 20000130 <errno>
    2e18:	557d                	li	a0,-1
    2e1a:	8082                	ret

00002e1c <_lseek>:
    2e1c:	05800793          	li	a5,88
    2e20:	88f1a823          	sw	a5,-1904(gp) # 20000130 <errno>
    2e24:	557d                	li	a0,-1
    2e26:	8082                	ret

00002e28 <_read>:
    2e28:	05800793          	li	a5,88
    2e2c:	88f1a823          	sw	a5,-1904(gp) # 20000130 <errno>
    2e30:	557d                	li	a0,-1
    2e32:	8082                	ret

00002e34 <_exit>:
    2e34:	a001                	j	2e34 <_exit>
    2e36:	0000                	unimp
    2e38:	7968                	flw	fa0,116(a0)
    2e3a:	7264                	flw	fs1,100(a2)
    2e3c:	4752506f          	j	28ab0 <_data_lma+0x25880>

00002e40 <hydro_x25519_BASE_POINT>:
    2e40:	00000009 00000000 00000000 00000000     ................
	...

00002e60 <hydro_x25519_a24>:
    2e60:	0001db41                                A...

00002e64 <hydro_x25519_sc_p>:
    2e64:	5cf5d3ed 5812631a a2f79cd6 14def9de     ...\.c.X........
	...
    2e80:	10000000                                ....

00002e84 <hydro_x25519_sc_r2>:
    2e84:	449c0f01 a40611e3 68859347 d00e1ba7     ...D....G..h....
    2e94:	17f5be65 ceec73d2 7c309a3d 0399411b     e....s..=.0|.A..

00002ea4 <zero>:
	...
    2ee4:	4a325b1b 00000000 00485b1b 323f5b1b     .[2J.....[H..[?2
    2ef4:	00006c35 74726150 5b1b203a 353b3833     5l..Part: .[38;5
    2f04:	6d34313b 20484357 32334843 33303056     ;14mWCH CH32V003
    2f14:	6d305b1b 00000a0d 74737953 6c436d65     .[0m....SystemCl
    2f24:	1b203a6b 3b38335b 34313b35 756c256d     k: .[38;5;14m%lu
    2f34:	5b1b7a48 0a0d6d30 00000000 53414c46     Hz.[0m......FLAS
    2f44:	69732048 203a657a 38335b1b 313b353b     H size: .[38;5;1
    2f54:	75256d34 5b1b424b 0a0d6d30 00000000     4m%uKB.[0m......
    2f64:	4153494d 67655220 65747369 1b203a72     MISA Register: .
    2f74:	3b38335b 34313b35 786c256d 6d305b1b     [38;5;14m%lx.[0m
    2f84:	0a0d0a0d 00000000 61657243 676e6974     ........Creating
    2f94:	79656b20 69617020 2e202e72 20202e20      key pair. . .  
    2fa4:	00000d0a 2079654b 72696170 65726320     ....Key pair cre
    2fb4:	64657461 54282021 206b6f6f 29756c25     ated! (Took %lu)
    2fc4:	00000d0a 6e676953 20676e69 20656874     ....Signing the 
    2fd4:	6c6c6f66 6e69776f 656d2067 67617373     following messag
    2fe4:	69772065 73206874 65726365 656b2074     e with secret ke
    2ff4:	2e202e79 20202e20 00000d0a 6862696c     y. . .  ....libh
    3004:	6f726479 216e6567 726f5720 676e696b     ydrogen! Working
    3014:	206e6f20 32334843 33303056 00000021      on CH32V003!...
    3024:	335b1b22 3b353b38 6d363631 5b1b7325     ".[38;5;166m%s.[
    3034:	0a226d30 0000000d 6d617845 00656c70     0m".....Example.
    3044:	6e676953 20216465 6f6f5428 6c25206b     Signed! (Took %l
    3054:	29736d75 00000d0a 20776f4e 69726576     ums)....Now veri
    3064:	6e697966 69732067 74616e67 20657275     fying signature 
    3074:	6e697375 68742067 75702065 63696c62     using the public
    3084:	79656b20 202e202e 0d0a202e 00000000      key. . . ......
    3094:	38335b1b 393b353b 6769536d 7574616e     .[38;5;9mSignatu
    30a4:	64206572 2073656f 20746f6e 6e676973     re does not sign
    30b4:	69687420 656d2073 67617373 5b1b2165      this message!.[
    30c4:	0d0a6d30 00000000 6e676953 72757461     0m......Signatur
    30d4:	61772065 00003a73 69726556 61636966     e was:..Verifica
    30e4:	6e6f6974 6f6f7420 256d206b 736d756c     tion took m%lums
    30f4:	00000d0a 38335b1b 313b353b 654d6d30     .....[38;5;10mMe
    3104:	67617373 6f632065 7269666e 2064656d     ssage confirmed 
    3114:	68747561 69746e65 69762063 69732061     authentic via si
    3124:	74616e67 21657275 6d305b1b 00000d0a     gnature!.[0m....
    3134:	6c627550 6b206369 77207965 3a207361     Public key was :
    3144:	00000000 72636553 6b207465 77207965     ....Secret key w
    3154:	3a207361 00000000 69726556 61636966     as :....Verifica
    3164:	6e6f6974 6f6f5420 6c25206b 0a736d75     tion Took %lums.
    3174:	0000000d 78300d0a 38335b1b 313b353b     ......0x.[38;5;1
    3184:	256d3633 00583230 58323025 00000000     36m%02X.%02X....

00003194 <__sf_fake_stderr>:
	...

000031b4 <__sf_fake_stdin>:
	...

000031d4 <__sf_fake_stdout>:
	...
    31f4:	2b302d23 00000020 004c6c68 45676665     #-0+ ...hlL.efgE
    3204:	00004746 33323130 37363534 42413938     FG..0123456789AB
    3214:	46454443 00000000 33323130 37363534     CDEF....01234567
    3224:	62613938 66656463 00000000              89abcdef....
